ccopy_reg
_reconstructor
p0
(cnetworkx.classes.graph
Graph
p1
c__builtin__
object
p2
Ntp3
Rp4
(dp5
S'node'
p6
(dp7
I0
(dp8
sI1
(dp9
sI2
(dp10
sI3
(dp11
sI4
(dp12
sI5
(dp13
sI6
(dp14
sI7
(dp15
sI8
(dp16
sI9
(dp17
sI10
(dp18
sI11
(dp19
sI12
(dp20
sI13
(dp21
sI14
(dp22
sI15
(dp23
sI16
(dp24
sI17
(dp25
sI18
(dp26
sI19
(dp27
ssS'graph'
p28
(dp29
sS'edge'
p30
(dp31
I0
(dp32
I3
(dp33
sI4
(dp34
sI5
(dp35
sI6
(dp36
sI7
(dp37
sI8
(dp38
sI9
(dp39
sI10
(dp40
sI11
(dp41
sI12
(dp42
sI13
(dp43
sI14
(dp44
sI15
(dp45
sI16
(dp46
sI17
(dp47
sI18
(dp48
sI19
(dp49
ssI1
(dp50
I3
(dp51
sI4
(dp52
sI5
(dp53
sI6
(dp54
sI7
(dp55
sI8
(dp56
sI9
(dp57
sI10
(dp58
sI11
(dp59
sI12
(dp60
sI13
(dp61
sI14
(dp62
sI15
(dp63
sI16
(dp64
sI17
(dp65
sI18
(dp66
sI19
(dp67
ssI2
(dp68
I3
(dp69
sI4
(dp70
sI5
(dp71
sI6
(dp72
sI7
(dp73
sI8
(dp74
sI9
(dp75
sI10
(dp76
sI11
(dp77
sI12
(dp78
sI13
(dp79
sI14
(dp80
sI15
(dp81
sI16
(dp82
sI17
(dp83
sI18
(dp84
sI19
(dp85
ssI3
(dp86
I0
g33
sI1
g51
sI2
g69
ssI4
(dp87
I0
g34
sI1
g52
sI2
g70
ssI5
(dp88
I0
g35
sI1
g53
sI2
g71
ssI6
(dp89
I0
g36
sI1
g54
sI2
g72
ssI7
(dp90
I0
g37
sI1
g55
sI2
g73
ssI8
(dp91
I0
g38
sI1
g56
sI2
g74
ssI9
(dp92
I0
g39
sI1
g57
sI2
g75
ssI10
(dp93
I0
g40
sI1
g58
sI2
g76
ssI11
(dp94
I0
g41
sI1
g59
sI2
g77
ssI12
(dp95
I0
g42
sI1
g60
sI2
g78
ssI13
(dp96
I0
g43
sI1
g61
sI2
g79
ssI14
(dp97
I0
g44
sI1
g62
sI2
g80
ssI15
(dp98
I0
g45
sI1
g63
sI2
g81
ssI16
(dp99
I0
g46
sI1
g64
sI2
g82
ssI17
(dp100
I0
g47
sI1
g65
sI2
g83
ssI18
(dp101
I0
g48
sI1
g66
sI2
g84
ssI19
(dp102
I0
g49
sI1
g67
sI2
g85
sssS'adj'
p103
g31
sb.