ccopy_reg
_reconstructor
p0
(cnetworkx.classes.graph
Graph
p1
c__builtin__
object
p2
Ntp3
Rp4
(dp5
S'node'
p6
(dp7
I0
(dp8
sI1
(dp9
sI2
(dp10
sI3
(dp11
sI4
(dp12
sI5
(dp13
sI6
(dp14
sI7
(dp15
sI8
(dp16
sI9
(dp17
sI10
(dp18
sI11
(dp19
sI12
(dp20
sI13
(dp21
sI14
(dp22
sI15
(dp23
sI16
(dp24
sI17
(dp25
sI18
(dp26
sI19
(dp27
sI20
(dp28
sI21
(dp29
sI22
(dp30
sI23
(dp31
sI24
(dp32
sI25
(dp33
sI26
(dp34
sI27
(dp35
sI28
(dp36
sI29
(dp37
ssS'graph'
p38
(dp39
sS'edge'
p40
(dp41
I0
(dp42
I3
(dp43
sI4
(dp44
sI5
(dp45
sI6
(dp46
sI7
(dp47
sI8
(dp48
sI9
(dp49
sI10
(dp50
sI11
(dp51
sI12
(dp52
sI13
(dp53
sI14
(dp54
sI15
(dp55
sI16
(dp56
sI17
(dp57
sI18
(dp58
sI19
(dp59
sI20
(dp60
sI21
(dp61
sI22
(dp62
sI23
(dp63
sI24
(dp64
sI25
(dp65
sI26
(dp66
sI27
(dp67
sI28
(dp68
sI29
(dp69
ssI1
(dp70
I3
(dp71
sI4
(dp72
sI5
(dp73
sI6
(dp74
sI7
(dp75
sI8
(dp76
sI9
(dp77
sI10
(dp78
sI11
(dp79
sI12
(dp80
sI13
(dp81
sI14
(dp82
sI15
(dp83
sI16
(dp84
sI17
(dp85
sI18
(dp86
sI19
(dp87
sI20
(dp88
sI21
(dp89
sI22
(dp90
sI23
(dp91
sI24
(dp92
sI25
(dp93
sI26
(dp94
sI27
(dp95
sI28
(dp96
sI29
(dp97
ssI2
(dp98
I3
(dp99
sI4
(dp100
sI5
(dp101
sI6
(dp102
sI7
(dp103
sI8
(dp104
sI9
(dp105
sI10
(dp106
sI11
(dp107
sI12
(dp108
sI13
(dp109
sI14
(dp110
sI15
(dp111
sI16
(dp112
sI17
(dp113
sI18
(dp114
sI19
(dp115
sI20
(dp116
sI21
(dp117
sI22
(dp118
sI23
(dp119
sI24
(dp120
sI25
(dp121
sI26
(dp122
sI27
(dp123
sI28
(dp124
sI29
(dp125
ssI3
(dp126
I0
g43
sI1
g71
sI2
g99
ssI4
(dp127
I0
g44
sI1
g72
sI2
g100
ssI5
(dp128
I0
g45
sI1
g73
sI2
g101
ssI6
(dp129
I0
g46
sI1
g74
sI2
g102
ssI7
(dp130
I0
g47
sI1
g75
sI2
g103
ssI8
(dp131
I0
g48
sI1
g76
sI2
g104
ssI9
(dp132
I0
g49
sI1
g77
sI2
g105
ssI10
(dp133
I0
g50
sI1
g78
sI2
g106
ssI11
(dp134
I0
g51
sI1
g79
sI2
g107
ssI12
(dp135
I0
g52
sI1
g80
sI2
g108
ssI13
(dp136
I0
g53
sI1
g81
sI2
g109
ssI14
(dp137
I0
g54
sI1
g82
sI2
g110
ssI15
(dp138
I0
g55
sI1
g83
sI2
g111
ssI16
(dp139
I0
g56
sI1
g84
sI2
g112
ssI17
(dp140
I0
g57
sI1
g85
sI2
g113
ssI18
(dp141
I0
g58
sI1
g86
sI2
g114
ssI19
(dp142
I0
g59
sI1
g87
sI2
g115
ssI20
(dp143
I0
g60
sI1
g88
sI2
g116
ssI21
(dp144
I0
g61
sI1
g89
sI2
g117
ssI22
(dp145
I0
g62
sI1
g90
sI2
g118
ssI23
(dp146
I0
g63
sI1
g91
sI2
g119
ssI24
(dp147
I0
g64
sI1
g92
sI2
g120
ssI25
(dp148
I0
g65
sI1
g93
sI2
g121
ssI26
(dp149
I0
g66
sI1
g94
sI2
g122
ssI27
(dp150
I0
g67
sI1
g95
sI2
g123
ssI28
(dp151
I0
g68
sI1
g96
sI2
g124
ssI29
(dp152
I0
g69
sI1
g97
sI2
g125
sssS'adj'
p153
g41
sb.