ccopy_reg
_reconstructor
p0
(cnetworkx.classes.graph
Graph
p1
c__builtin__
object
p2
Ntp3
Rp4
(dp5
S'node'
p6
(dp7
I0
(dp8
sI1
(dp9
sI2
(dp10
sI3
(dp11
sI4
(dp12
sI5
(dp13
sI6
(dp14
sI7
(dp15
sI8
(dp16
sI9
(dp17
ssS'graph'
p18
(dp19
sS'edge'
p20
(dp21
I0
(dp22
I3
(dp23
sI4
(dp24
sI5
(dp25
sI6
(dp26
sI7
(dp27
sI8
(dp28
sI9
(dp29
ssI1
(dp30
I3
(dp31
sI4
(dp32
sI5
(dp33
sI6
(dp34
sI7
(dp35
sI8
(dp36
sI9
(dp37
ssI2
(dp38
I3
(dp39
sI4
(dp40
sI5
(dp41
sI6
(dp42
sI7
(dp43
sI8
(dp44
sI9
(dp45
ssI3
(dp46
I0
g23
sI1
g31
sI2
g39
ssI4
(dp47
I0
g24
sI1
g32
sI2
g40
ssI5
(dp48
I0
g25
sI1
g33
sI2
g41
ssI6
(dp49
I0
g26
sI1
g34
sI2
g42
ssI7
(dp50
I0
g27
sI1
g35
sI2
g43
ssI8
(dp51
I0
g28
sI1
g36
sI2
g44
ssI9
(dp52
I0
g29
sI1
g37
sI2
g45
sssS'adj'
p53
g21
sb.