ccopy_reg
_reconstructor
p0
(cnetworkx.classes.graph
Graph
p1
c__builtin__
object
p2
Ntp3
Rp4
(dp5
S'node'
p6
(dp7
I0
(dp8
sI1
(dp9
sI2
(dp10
sI3
(dp11
sI4
(dp12
sI5
(dp13
sI6
(dp14
sI7
(dp15
sI8
(dp16
sI9
(dp17
sI10
(dp18
sI11
(dp19
sI12
(dp20
sI13
(dp21
sI14
(dp22
sI15
(dp23
sI16
(dp24
sI17
(dp25
sI18
(dp26
sI19
(dp27
sI20
(dp28
sI21
(dp29
sI22
(dp30
sI23
(dp31
sI24
(dp32
sI25
(dp33
sI26
(dp34
sI27
(dp35
sI28
(dp36
sI29
(dp37
sI30
(dp38
sI31
(dp39
sI32
(dp40
sI33
(dp41
sI34
(dp42
sI35
(dp43
sI36
(dp44
sI37
(dp45
sI38
(dp46
sI39
(dp47
sI40
(dp48
sI41
(dp49
sI42
(dp50
sI43
(dp51
sI44
(dp52
sI45
(dp53
sI46
(dp54
sI47
(dp55
sI48
(dp56
sI49
(dp57
sI50
(dp58
sI51
(dp59
sI52
(dp60
sI53
(dp61
sI54
(dp62
sI55
(dp63
sI56
(dp64
sI57
(dp65
sI58
(dp66
sI59
(dp67
sI60
(dp68
sI61
(dp69
sI62
(dp70
sI63
(dp71
sI64
(dp72
sI65
(dp73
sI66
(dp74
sI67
(dp75
sI68
(dp76
sI69
(dp77
sI70
(dp78
sI71
(dp79
sI72
(dp80
sI73
(dp81
sI74
(dp82
sI75
(dp83
sI76
(dp84
sI77
(dp85
sI78
(dp86
sI79
(dp87
sI80
(dp88
sI81
(dp89
sI82
(dp90
sI83
(dp91
sI84
(dp92
sI85
(dp93
sI86
(dp94
sI87
(dp95
sI88
(dp96
sI89
(dp97
sI90
(dp98
sI91
(dp99
sI92
(dp100
sI93
(dp101
sI94
(dp102
sI95
(dp103
sI96
(dp104
sI97
(dp105
sI98
(dp106
sI99
(dp107
sI100
(dp108
sI101
(dp109
sI102
(dp110
sI103
(dp111
sI104
(dp112
sI105
(dp113
sI106
(dp114
sI107
(dp115
sI108
(dp116
sI109
(dp117
sI110
(dp118
sI111
(dp119
sI112
(dp120
sI113
(dp121
sI114
(dp122
sI115
(dp123
sI116
(dp124
sI117
(dp125
sI118
(dp126
sI119
(dp127
sI120
(dp128
sI121
(dp129
sI122
(dp130
sI123
(dp131
sI124
(dp132
sI125
(dp133
sI126
(dp134
ssS'graph'
p135
(dp136
sS'edge'
p137
(dp138
I0
(dp139
I1
(dp140
sI2
(dp141
sI4
(dp142
sI5
(dp143
sI8
(dp144
sI10
(dp145
sI16
(dp146
sI19
(dp147
sI20
(dp148
sI25
(dp149
sI27
(dp150
sI32
(dp151
sI33
(dp152
sI38
(dp153
sI40
(dp154
sI47
(dp155
sI50
(dp156
sI51
(dp157
sI54
(dp158
sI61
(dp159
sI63
(dp160
sI64
(dp161
sI66
(dp162
sI73
(dp163
sI76
(dp164
sI77
(dp165
sI80
(dp166
sI87
(dp167
sI89
(dp168
sI94
(dp169
sI95
(dp170
sI100
(dp171
sI102
(dp172
sI107
(dp173
sI108
(dp174
sI111
(dp175
sI117
(dp176
sI119
(dp177
sI122
(dp178
sI123
(dp179
sI125
(dp180
sI126
(dp181
ssI1
(dp182
I0
g140
sI2
(dp183
sI3
(dp184
sI5
(dp185
sI6
(dp186
sI9
(dp187
sI11
(dp188
sI17
(dp189
sI20
(dp190
sI21
(dp191
sI26
(dp192
sI28
(dp193
sI33
(dp194
sI34
(dp195
sI39
(dp196
sI41
(dp197
sI48
(dp198
sI51
(dp199
sI52
(dp200
sI55
(dp201
sI62
(dp202
sI64
(dp203
sI65
(dp204
sI67
(dp205
sI74
(dp206
sI77
(dp207
sI78
(dp208
sI81
(dp209
sI88
(dp210
sI90
(dp211
sI95
(dp212
sI96
(dp213
sI101
(dp214
sI103
(dp215
sI108
(dp216
sI109
(dp217
sI112
(dp218
sI118
(dp219
sI120
(dp220
sI123
(dp221
sI124
(dp222
sI126
(dp223
ssI2
(dp224
I0
g141
sI1
g183
sI3
(dp225
sI4
(dp226
sI6
(dp227
sI7
(dp228
sI10
(dp229
sI12
(dp230
sI18
(dp231
sI21
(dp232
sI22
(dp233
sI27
(dp234
sI29
(dp235
sI34
(dp236
sI35
(dp237
sI40
(dp238
sI42
(dp239
sI49
(dp240
sI52
(dp241
sI53
(dp242
sI56
(dp243
sI63
(dp244
sI65
(dp245
sI66
(dp246
sI68
(dp247
sI75
(dp248
sI78
(dp249
sI79
(dp250
sI82
(dp251
sI89
(dp252
sI91
(dp253
sI96
(dp254
sI97
(dp255
sI102
(dp256
sI104
(dp257
sI109
(dp258
sI110
(dp259
sI113
(dp260
sI119
(dp261
sI121
(dp262
sI124
(dp263
sI125
(dp264
ssI3
(dp265
I1
g184
sI2
g225
sI4
(dp266
sI5
(dp267
sI7
(dp268
sI8
(dp269
sI11
(dp270
sI13
(dp271
sI19
(dp272
sI22
(dp273
sI23
(dp274
sI28
(dp275
sI30
(dp276
sI35
(dp277
sI36
(dp278
sI41
(dp279
sI43
(dp280
sI50
(dp281
sI53
(dp282
sI54
(dp283
sI57
(dp284
sI64
(dp285
sI66
(dp286
sI67
(dp287
sI69
(dp288
sI76
(dp289
sI79
(dp290
sI80
(dp291
sI83
(dp292
sI90
(dp293
sI92
(dp294
sI97
(dp295
sI98
(dp296
sI103
(dp297
sI105
(dp298
sI110
(dp299
sI111
(dp300
sI114
(dp301
sI120
(dp302
sI122
(dp303
sI125
(dp304
sI126
(dp305
ssI4
(dp306
I0
g142
sI2
g226
sI3
g266
sI5
(dp307
sI6
(dp308
sI8
(dp309
sI9
(dp310
sI12
(dp311
sI14
(dp312
sI20
(dp313
sI23
(dp314
sI24
(dp315
sI29
(dp316
sI31
(dp317
sI36
(dp318
sI37
(dp319
sI42
(dp320
sI44
(dp321
sI51
(dp322
sI54
(dp323
sI55
(dp324
sI58
(dp325
sI65
(dp326
sI67
(dp327
sI68
(dp328
sI70
(dp329
sI77
(dp330
sI80
(dp331
sI81
(dp332
sI84
(dp333
sI91
(dp334
sI93
(dp335
sI98
(dp336
sI99
(dp337
sI104
(dp338
sI106
(dp339
sI111
(dp340
sI112
(dp341
sI115
(dp342
sI121
(dp343
sI123
(dp344
sI126
(dp345
ssI5
(dp346
I0
g143
sI1
g185
sI3
g267
sI4
g307
sI6
(dp347
sI7
(dp348
sI9
(dp349
sI10
(dp350
sI13
(dp351
sI15
(dp352
sI21
(dp353
sI24
(dp354
sI25
(dp355
sI30
(dp356
sI32
(dp357
sI37
(dp358
sI38
(dp359
sI43
(dp360
sI45
(dp361
sI52
(dp362
sI55
(dp363
sI56
(dp364
sI59
(dp365
sI66
(dp366
sI68
(dp367
sI69
(dp368
sI71
(dp369
sI78
(dp370
sI81
(dp371
sI82
(dp372
sI85
(dp373
sI92
(dp374
sI94
(dp375
sI99
(dp376
sI100
(dp377
sI105
(dp378
sI107
(dp379
sI112
(dp380
sI113
(dp381
sI116
(dp382
sI122
(dp383
sI124
(dp384
ssI6
(dp385
I1
g186
sI2
g227
sI4
g308
sI5
g347
sI7
(dp386
sI8
(dp387
sI10
(dp388
sI11
(dp389
sI14
(dp390
sI16
(dp391
sI22
(dp392
sI25
(dp393
sI26
(dp394
sI31
(dp395
sI33
(dp396
sI38
(dp397
sI39
(dp398
sI44
(dp399
sI46
(dp400
sI53
(dp401
sI56
(dp402
sI57
(dp403
sI60
(dp404
sI67
(dp405
sI69
(dp406
sI70
(dp407
sI72
(dp408
sI79
(dp409
sI82
(dp410
sI83
(dp411
sI86
(dp412
sI93
(dp413
sI95
(dp414
sI100
(dp415
sI101
(dp416
sI106
(dp417
sI108
(dp418
sI113
(dp419
sI114
(dp420
sI117
(dp421
sI123
(dp422
sI125
(dp423
ssI7
(dp424
I2
g228
sI3
g268
sI5
g348
sI6
g386
sI8
(dp425
sI9
(dp426
sI11
(dp427
sI12
(dp428
sI15
(dp429
sI17
(dp430
sI23
(dp431
sI26
(dp432
sI27
(dp433
sI32
(dp434
sI34
(dp435
sI39
(dp436
sI40
(dp437
sI45
(dp438
sI47
(dp439
sI54
(dp440
sI57
(dp441
sI58
(dp442
sI61
(dp443
sI68
(dp444
sI70
(dp445
sI71
(dp446
sI73
(dp447
sI80
(dp448
sI83
(dp449
sI84
(dp450
sI87
(dp451
sI94
(dp452
sI96
(dp453
sI101
(dp454
sI102
(dp455
sI107
(dp456
sI109
(dp457
sI114
(dp458
sI115
(dp459
sI118
(dp460
sI124
(dp461
sI126
(dp462
ssI8
(dp463
I0
g144
sI3
g269
sI4
g309
sI6
g387
sI7
g425
sI9
(dp464
sI10
(dp465
sI12
(dp466
sI13
(dp467
sI16
(dp468
sI18
(dp469
sI24
(dp470
sI27
(dp471
sI28
(dp472
sI33
(dp473
sI35
(dp474
sI40
(dp475
sI41
(dp476
sI46
(dp477
sI48
(dp478
sI55
(dp479
sI58
(dp480
sI59
(dp481
sI62
(dp482
sI69
(dp483
sI71
(dp484
sI72
(dp485
sI74
(dp486
sI81
(dp487
sI84
(dp488
sI85
(dp489
sI88
(dp490
sI95
(dp491
sI97
(dp492
sI102
(dp493
sI103
(dp494
sI108
(dp495
sI110
(dp496
sI115
(dp497
sI116
(dp498
sI119
(dp499
sI125
(dp500
ssI9
(dp501
I1
g187
sI4
g310
sI5
g349
sI7
g426
sI8
g464
sI10
(dp502
sI11
(dp503
sI13
(dp504
sI14
(dp505
sI17
(dp506
sI19
(dp507
sI25
(dp508
sI28
(dp509
sI29
(dp510
sI34
(dp511
sI36
(dp512
sI41
(dp513
sI42
(dp514
sI47
(dp515
sI49
(dp516
sI56
(dp517
sI59
(dp518
sI60
(dp519
sI63
(dp520
sI70
(dp521
sI72
(dp522
sI73
(dp523
sI75
(dp524
sI82
(dp525
sI85
(dp526
sI86
(dp527
sI89
(dp528
sI96
(dp529
sI98
(dp530
sI103
(dp531
sI104
(dp532
sI109
(dp533
sI111
(dp534
sI116
(dp535
sI117
(dp536
sI120
(dp537
sI126
(dp538
ssI10
(dp539
I0
g145
sI2
g229
sI5
g350
sI6
g388
sI8
g465
sI9
g502
sI11
(dp540
sI12
(dp541
sI14
(dp542
sI15
(dp543
sI18
(dp544
sI20
(dp545
sI26
(dp546
sI29
(dp547
sI30
(dp548
sI35
(dp549
sI37
(dp550
sI42
(dp551
sI43
(dp552
sI48
(dp553
sI50
(dp554
sI57
(dp555
sI60
(dp556
sI61
(dp557
sI64
(dp558
sI71
(dp559
sI73
(dp560
sI74
(dp561
sI76
(dp562
sI83
(dp563
sI86
(dp564
sI87
(dp565
sI90
(dp566
sI97
(dp567
sI99
(dp568
sI104
(dp569
sI105
(dp570
sI110
(dp571
sI112
(dp572
sI117
(dp573
sI118
(dp574
sI121
(dp575
ssI11
(dp576
I1
g188
sI3
g270
sI6
g389
sI7
g427
sI9
g503
sI10
g540
sI12
(dp577
sI13
(dp578
sI15
(dp579
sI16
(dp580
sI19
(dp581
sI21
(dp582
sI27
(dp583
sI30
(dp584
sI31
(dp585
sI36
(dp586
sI38
(dp587
sI43
(dp588
sI44
(dp589
sI49
(dp590
sI51
(dp591
sI58
(dp592
sI61
(dp593
sI62
(dp594
sI65
(dp595
sI72
(dp596
sI74
(dp597
sI75
(dp598
sI77
(dp599
sI84
(dp600
sI87
(dp601
sI88
(dp602
sI91
(dp603
sI98
(dp604
sI100
(dp605
sI105
(dp606
sI106
(dp607
sI111
(dp608
sI113
(dp609
sI118
(dp610
sI119
(dp611
sI122
(dp612
ssI12
(dp613
I2
g230
sI4
g311
sI7
g428
sI8
g466
sI10
g541
sI11
g577
sI13
(dp614
sI14
(dp615
sI16
(dp616
sI17
(dp617
sI20
(dp618
sI22
(dp619
sI28
(dp620
sI31
(dp621
sI32
(dp622
sI37
(dp623
sI39
(dp624
sI44
(dp625
sI45
(dp626
sI50
(dp627
sI52
(dp628
sI59
(dp629
sI62
(dp630
sI63
(dp631
sI66
(dp632
sI73
(dp633
sI75
(dp634
sI76
(dp635
sI78
(dp636
sI85
(dp637
sI88
(dp638
sI89
(dp639
sI92
(dp640
sI99
(dp641
sI101
(dp642
sI106
(dp643
sI107
(dp644
sI112
(dp645
sI114
(dp646
sI119
(dp647
sI120
(dp648
sI123
(dp649
ssI13
(dp650
I3
g271
sI5
g351
sI8
g467
sI9
g504
sI11
g578
sI12
g614
sI14
(dp651
sI15
(dp652
sI17
(dp653
sI18
(dp654
sI21
(dp655
sI23
(dp656
sI29
(dp657
sI32
(dp658
sI33
(dp659
sI38
(dp660
sI40
(dp661
sI45
(dp662
sI46
(dp663
sI51
(dp664
sI53
(dp665
sI60
(dp666
sI63
(dp667
sI64
(dp668
sI67
(dp669
sI74
(dp670
sI76
(dp671
sI77
(dp672
sI79
(dp673
sI86
(dp674
sI89
(dp675
sI90
(dp676
sI93
(dp677
sI100
(dp678
sI102
(dp679
sI107
(dp680
sI108
(dp681
sI113
(dp682
sI115
(dp683
sI120
(dp684
sI121
(dp685
sI124
(dp686
ssI14
(dp687
I4
g312
sI6
g390
sI9
g505
sI10
g542
sI12
g615
sI13
g651
sI15
(dp688
sI16
(dp689
sI18
(dp690
sI19
(dp691
sI22
(dp692
sI24
(dp693
sI30
(dp694
sI33
(dp695
sI34
(dp696
sI39
(dp697
sI41
(dp698
sI46
(dp699
sI47
(dp700
sI52
(dp701
sI54
(dp702
sI61
(dp703
sI64
(dp704
sI65
(dp705
sI68
(dp706
sI75
(dp707
sI77
(dp708
sI78
(dp709
sI80
(dp710
sI87
(dp711
sI90
(dp712
sI91
(dp713
sI94
(dp714
sI101
(dp715
sI103
(dp716
sI108
(dp717
sI109
(dp718
sI114
(dp719
sI116
(dp720
sI121
(dp721
sI122
(dp722
sI125
(dp723
ssI15
(dp724
I5
g352
sI7
g429
sI10
g543
sI11
g579
sI13
g652
sI14
g688
sI16
(dp725
sI17
(dp726
sI19
(dp727
sI20
(dp728
sI23
(dp729
sI25
(dp730
sI31
(dp731
sI34
(dp732
sI35
(dp733
sI40
(dp734
sI42
(dp735
sI47
(dp736
sI48
(dp737
sI53
(dp738
sI55
(dp739
sI62
(dp740
sI65
(dp741
sI66
(dp742
sI69
(dp743
sI76
(dp744
sI78
(dp745
sI79
(dp746
sI81
(dp747
sI88
(dp748
sI91
(dp749
sI92
(dp750
sI95
(dp751
sI102
(dp752
sI104
(dp753
sI109
(dp754
sI110
(dp755
sI115
(dp756
sI117
(dp757
sI122
(dp758
sI123
(dp759
sI126
(dp760
ssI16
(dp761
I0
g146
sI6
g391
sI8
g468
sI11
g580
sI12
g616
sI14
g689
sI15
g725
sI17
(dp762
sI18
(dp763
sI20
(dp764
sI21
(dp765
sI24
(dp766
sI26
(dp767
sI32
(dp768
sI35
(dp769
sI36
(dp770
sI41
(dp771
sI43
(dp772
sI48
(dp773
sI49
(dp774
sI54
(dp775
sI56
(dp776
sI63
(dp777
sI66
(dp778
sI67
(dp779
sI70
(dp780
sI77
(dp781
sI79
(dp782
sI80
(dp783
sI82
(dp784
sI89
(dp785
sI92
(dp786
sI93
(dp787
sI96
(dp788
sI103
(dp789
sI105
(dp790
sI110
(dp791
sI111
(dp792
sI116
(dp793
sI118
(dp794
sI123
(dp795
sI124
(dp796
ssI17
(dp797
I1
g189
sI7
g430
sI9
g506
sI12
g617
sI13
g653
sI15
g726
sI16
g762
sI18
(dp798
sI19
(dp799
sI21
(dp800
sI22
(dp801
sI25
(dp802
sI27
(dp803
sI33
(dp804
sI36
(dp805
sI37
(dp806
sI42
(dp807
sI44
(dp808
sI49
(dp809
sI50
(dp810
sI55
(dp811
sI57
(dp812
sI64
(dp813
sI67
(dp814
sI68
(dp815
sI71
(dp816
sI78
(dp817
sI80
(dp818
sI81
(dp819
sI83
(dp820
sI90
(dp821
sI93
(dp822
sI94
(dp823
sI97
(dp824
sI104
(dp825
sI106
(dp826
sI111
(dp827
sI112
(dp828
sI117
(dp829
sI119
(dp830
sI124
(dp831
sI125
(dp832
ssI18
(dp833
I2
g231
sI8
g469
sI10
g544
sI13
g654
sI14
g690
sI16
g763
sI17
g798
sI19
(dp834
sI20
(dp835
sI22
(dp836
sI23
(dp837
sI26
(dp838
sI28
(dp839
sI34
(dp840
sI37
(dp841
sI38
(dp842
sI43
(dp843
sI45
(dp844
sI50
(dp845
sI51
(dp846
sI56
(dp847
sI58
(dp848
sI65
(dp849
sI68
(dp850
sI69
(dp851
sI72
(dp852
sI79
(dp853
sI81
(dp854
sI82
(dp855
sI84
(dp856
sI91
(dp857
sI94
(dp858
sI95
(dp859
sI98
(dp860
sI105
(dp861
sI107
(dp862
sI112
(dp863
sI113
(dp864
sI118
(dp865
sI120
(dp866
sI125
(dp867
sI126
(dp868
ssI19
(dp869
I0
g147
sI3
g272
sI9
g507
sI11
g581
sI14
g691
sI15
g727
sI17
g799
sI18
g834
sI20
(dp870
sI21
(dp871
sI23
(dp872
sI24
(dp873
sI27
(dp874
sI29
(dp875
sI35
(dp876
sI38
(dp877
sI39
(dp878
sI44
(dp879
sI46
(dp880
sI51
(dp881
sI52
(dp882
sI57
(dp883
sI59
(dp884
sI66
(dp885
sI69
(dp886
sI70
(dp887
sI73
(dp888
sI80
(dp889
sI82
(dp890
sI83
(dp891
sI85
(dp892
sI92
(dp893
sI95
(dp894
sI96
(dp895
sI99
(dp896
sI106
(dp897
sI108
(dp898
sI113
(dp899
sI114
(dp900
sI119
(dp901
sI121
(dp902
sI126
(dp903
ssI20
(dp904
I0
g148
sI1
g190
sI4
g313
sI10
g545
sI12
g618
sI15
g728
sI16
g764
sI18
g835
sI19
g870
sI21
(dp905
sI22
(dp906
sI24
(dp907
sI25
(dp908
sI28
(dp909
sI30
(dp910
sI36
(dp911
sI39
(dp912
sI40
(dp913
sI45
(dp914
sI47
(dp915
sI52
(dp916
sI53
(dp917
sI58
(dp918
sI60
(dp919
sI67
(dp920
sI70
(dp921
sI71
(dp922
sI74
(dp923
sI81
(dp924
sI83
(dp925
sI84
(dp926
sI86
(dp927
sI93
(dp928
sI96
(dp929
sI97
(dp930
sI100
(dp931
sI107
(dp932
sI109
(dp933
sI114
(dp934
sI115
(dp935
sI120
(dp936
sI122
(dp937
ssI21
(dp938
I1
g191
sI2
g232
sI5
g353
sI11
g582
sI13
g655
sI16
g765
sI17
g800
sI19
g871
sI20
g905
sI22
(dp939
sI23
(dp940
sI25
(dp941
sI26
(dp942
sI29
(dp943
sI31
(dp944
sI37
(dp945
sI40
(dp946
sI41
(dp947
sI46
(dp948
sI48
(dp949
sI53
(dp950
sI54
(dp951
sI59
(dp952
sI61
(dp953
sI68
(dp954
sI71
(dp955
sI72
(dp956
sI75
(dp957
sI82
(dp958
sI84
(dp959
sI85
(dp960
sI87
(dp961
sI94
(dp962
sI97
(dp963
sI98
(dp964
sI101
(dp965
sI108
(dp966
sI110
(dp967
sI115
(dp968
sI116
(dp969
sI121
(dp970
sI123
(dp971
ssI22
(dp972
I2
g233
sI3
g273
sI6
g392
sI12
g619
sI14
g692
sI17
g801
sI18
g836
sI20
g906
sI21
g939
sI23
(dp973
sI24
(dp974
sI26
(dp975
sI27
(dp976
sI30
(dp977
sI32
(dp978
sI38
(dp979
sI41
(dp980
sI42
(dp981
sI47
(dp982
sI49
(dp983
sI54
(dp984
sI55
(dp985
sI60
(dp986
sI62
(dp987
sI69
(dp988
sI72
(dp989
sI73
(dp990
sI76
(dp991
sI83
(dp992
sI85
(dp993
sI86
(dp994
sI88
(dp995
sI95
(dp996
sI98
(dp997
sI99
(dp998
sI102
(dp999
sI109
(dp1000
sI111
(dp1001
sI116
(dp1002
sI117
(dp1003
sI122
(dp1004
sI124
(dp1005
ssI23
(dp1006
I3
g274
sI4
g314
sI7
g431
sI13
g656
sI15
g729
sI18
g837
sI19
g872
sI21
g940
sI22
g973
sI24
(dp1007
sI25
(dp1008
sI27
(dp1009
sI28
(dp1010
sI31
(dp1011
sI33
(dp1012
sI39
(dp1013
sI42
(dp1014
sI43
(dp1015
sI48
(dp1016
sI50
(dp1017
sI55
(dp1018
sI56
(dp1019
sI61
(dp1020
sI63
(dp1021
sI70
(dp1022
sI73
(dp1023
sI74
(dp1024
sI77
(dp1025
sI84
(dp1026
sI86
(dp1027
sI87
(dp1028
sI89
(dp1029
sI96
(dp1030
sI99
(dp1031
sI100
(dp1032
sI103
(dp1033
sI110
(dp1034
sI112
(dp1035
sI117
(dp1036
sI118
(dp1037
sI123
(dp1038
sI125
(dp1039
ssI24
(dp1040
I4
g315
sI5
g354
sI8
g470
sI14
g693
sI16
g766
sI19
g873
sI20
g907
sI22
g974
sI23
g1007
sI25
(dp1041
sI26
(dp1042
sI28
(dp1043
sI29
(dp1044
sI32
(dp1045
sI34
(dp1046
sI40
(dp1047
sI43
(dp1048
sI44
(dp1049
sI49
(dp1050
sI51
(dp1051
sI56
(dp1052
sI57
(dp1053
sI62
(dp1054
sI64
(dp1055
sI71
(dp1056
sI74
(dp1057
sI75
(dp1058
sI78
(dp1059
sI85
(dp1060
sI87
(dp1061
sI88
(dp1062
sI90
(dp1063
sI97
(dp1064
sI100
(dp1065
sI101
(dp1066
sI104
(dp1067
sI111
(dp1068
sI113
(dp1069
sI118
(dp1070
sI119
(dp1071
sI124
(dp1072
sI126
(dp1073
ssI25
(dp1074
I0
g149
sI5
g355
sI6
g393
sI9
g508
sI15
g730
sI17
g802
sI20
g908
sI21
g941
sI23
g1008
sI24
g1041
sI26
(dp1075
sI27
(dp1076
sI29
(dp1077
sI30
(dp1078
sI33
(dp1079
sI35
(dp1080
sI41
(dp1081
sI44
(dp1082
sI45
(dp1083
sI50
(dp1084
sI52
(dp1085
sI57
(dp1086
sI58
(dp1087
sI63
(dp1088
sI65
(dp1089
sI72
(dp1090
sI75
(dp1091
sI76
(dp1092
sI79
(dp1093
sI86
(dp1094
sI88
(dp1095
sI89
(dp1096
sI91
(dp1097
sI98
(dp1098
sI101
(dp1099
sI102
(dp1100
sI105
(dp1101
sI112
(dp1102
sI114
(dp1103
sI119
(dp1104
sI120
(dp1105
sI125
(dp1106
ssI26
(dp1107
I1
g192
sI6
g394
sI7
g432
sI10
g546
sI16
g767
sI18
g838
sI21
g942
sI22
g975
sI24
g1042
sI25
g1075
sI27
(dp1108
sI28
(dp1109
sI30
(dp1110
sI31
(dp1111
sI34
(dp1112
sI36
(dp1113
sI42
(dp1114
sI45
(dp1115
sI46
(dp1116
sI51
(dp1117
sI53
(dp1118
sI58
(dp1119
sI59
(dp1120
sI64
(dp1121
sI66
(dp1122
sI73
(dp1123
sI76
(dp1124
sI77
(dp1125
sI80
(dp1126
sI87
(dp1127
sI89
(dp1128
sI90
(dp1129
sI92
(dp1130
sI99
(dp1131
sI102
(dp1132
sI103
(dp1133
sI106
(dp1134
sI113
(dp1135
sI115
(dp1136
sI120
(dp1137
sI121
(dp1138
sI126
(dp1139
ssI27
(dp1140
I0
g150
sI2
g234
sI7
g433
sI8
g471
sI11
g583
sI17
g803
sI19
g874
sI22
g976
sI23
g1009
sI25
g1076
sI26
g1108
sI28
(dp1141
sI29
(dp1142
sI31
(dp1143
sI32
(dp1144
sI35
(dp1145
sI37
(dp1146
sI43
(dp1147
sI46
(dp1148
sI47
(dp1149
sI52
(dp1150
sI54
(dp1151
sI59
(dp1152
sI60
(dp1153
sI65
(dp1154
sI67
(dp1155
sI74
(dp1156
sI77
(dp1157
sI78
(dp1158
sI81
(dp1159
sI88
(dp1160
sI90
(dp1161
sI91
(dp1162
sI93
(dp1163
sI100
(dp1164
sI103
(dp1165
sI104
(dp1166
sI107
(dp1167
sI114
(dp1168
sI116
(dp1169
sI121
(dp1170
sI122
(dp1171
ssI28
(dp1172
I1
g193
sI3
g275
sI8
g472
sI9
g509
sI12
g620
sI18
g839
sI20
g909
sI23
g1010
sI24
g1043
sI26
g1109
sI27
g1141
sI29
(dp1173
sI30
(dp1174
sI32
(dp1175
sI33
(dp1176
sI36
(dp1177
sI38
(dp1178
sI44
(dp1179
sI47
(dp1180
sI48
(dp1181
sI53
(dp1182
sI55
(dp1183
sI60
(dp1184
sI61
(dp1185
sI66
(dp1186
sI68
(dp1187
sI75
(dp1188
sI78
(dp1189
sI79
(dp1190
sI82
(dp1191
sI89
(dp1192
sI91
(dp1193
sI92
(dp1194
sI94
(dp1195
sI101
(dp1196
sI104
(dp1197
sI105
(dp1198
sI108
(dp1199
sI115
(dp1200
sI117
(dp1201
sI122
(dp1202
sI123
(dp1203
ssI29
(dp1204
I2
g235
sI4
g316
sI9
g510
sI10
g547
sI13
g657
sI19
g875
sI21
g943
sI24
g1044
sI25
g1077
sI27
g1142
sI28
g1173
sI30
(dp1205
sI31
(dp1206
sI33
(dp1207
sI34
(dp1208
sI37
(dp1209
sI39
(dp1210
sI45
(dp1211
sI48
(dp1212
sI49
(dp1213
sI54
(dp1214
sI56
(dp1215
sI61
(dp1216
sI62
(dp1217
sI67
(dp1218
sI69
(dp1219
sI76
(dp1220
sI79
(dp1221
sI80
(dp1222
sI83
(dp1223
sI90
(dp1224
sI92
(dp1225
sI93
(dp1226
sI95
(dp1227
sI102
(dp1228
sI105
(dp1229
sI106
(dp1230
sI109
(dp1231
sI116
(dp1232
sI118
(dp1233
sI123
(dp1234
sI124
(dp1235
ssI30
(dp1236
I3
g276
sI5
g356
sI10
g548
sI11
g584
sI14
g694
sI20
g910
sI22
g977
sI25
g1078
sI26
g1110
sI28
g1174
sI29
g1205
sI31
(dp1237
sI32
(dp1238
sI34
(dp1239
sI35
(dp1240
sI38
(dp1241
sI40
(dp1242
sI46
(dp1243
sI49
(dp1244
sI50
(dp1245
sI55
(dp1246
sI57
(dp1247
sI62
(dp1248
sI63
(dp1249
sI68
(dp1250
sI70
(dp1251
sI77
(dp1252
sI80
(dp1253
sI81
(dp1254
sI84
(dp1255
sI91
(dp1256
sI93
(dp1257
sI94
(dp1258
sI96
(dp1259
sI103
(dp1260
sI106
(dp1261
sI107
(dp1262
sI110
(dp1263
sI117
(dp1264
sI119
(dp1265
sI124
(dp1266
sI125
(dp1267
ssI31
(dp1268
I4
g317
sI6
g395
sI11
g585
sI12
g621
sI15
g731
sI21
g944
sI23
g1011
sI26
g1111
sI27
g1143
sI29
g1206
sI30
g1237
sI32
(dp1269
sI33
(dp1270
sI35
(dp1271
sI36
(dp1272
sI39
(dp1273
sI41
(dp1274
sI47
(dp1275
sI50
(dp1276
sI51
(dp1277
sI56
(dp1278
sI58
(dp1279
sI63
(dp1280
sI64
(dp1281
sI69
(dp1282
sI71
(dp1283
sI78
(dp1284
sI81
(dp1285
sI82
(dp1286
sI85
(dp1287
sI92
(dp1288
sI94
(dp1289
sI95
(dp1290
sI97
(dp1291
sI104
(dp1292
sI107
(dp1293
sI108
(dp1294
sI111
(dp1295
sI118
(dp1296
sI120
(dp1297
sI125
(dp1298
sI126
(dp1299
ssI32
(dp1300
I0
g151
sI5
g357
sI7
g434
sI12
g622
sI13
g658
sI16
g768
sI22
g978
sI24
g1045
sI27
g1144
sI28
g1175
sI30
g1238
sI31
g1269
sI33
(dp1301
sI34
(dp1302
sI36
(dp1303
sI37
(dp1304
sI40
(dp1305
sI42
(dp1306
sI48
(dp1307
sI51
(dp1308
sI52
(dp1309
sI57
(dp1310
sI59
(dp1311
sI64
(dp1312
sI65
(dp1313
sI70
(dp1314
sI72
(dp1315
sI79
(dp1316
sI82
(dp1317
sI83
(dp1318
sI86
(dp1319
sI93
(dp1320
sI95
(dp1321
sI96
(dp1322
sI98
(dp1323
sI105
(dp1324
sI108
(dp1325
sI109
(dp1326
sI112
(dp1327
sI119
(dp1328
sI121
(dp1329
sI126
(dp1330
ssI33
(dp1331
I0
g152
sI1
g194
sI6
g396
sI8
g473
sI13
g659
sI14
g695
sI17
g804
sI23
g1012
sI25
g1079
sI28
g1176
sI29
g1207
sI31
g1270
sI32
g1301
sI34
(dp1332
sI35
(dp1333
sI37
(dp1334
sI38
(dp1335
sI41
(dp1336
sI43
(dp1337
sI49
(dp1338
sI52
(dp1339
sI53
(dp1340
sI58
(dp1341
sI60
(dp1342
sI65
(dp1343
sI66
(dp1344
sI71
(dp1345
sI73
(dp1346
sI80
(dp1347
sI83
(dp1348
sI84
(dp1349
sI87
(dp1350
sI94
(dp1351
sI96
(dp1352
sI97
(dp1353
sI99
(dp1354
sI106
(dp1355
sI109
(dp1356
sI110
(dp1357
sI113
(dp1358
sI120
(dp1359
sI122
(dp1360
ssI34
(dp1361
I1
g195
sI2
g236
sI7
g435
sI9
g511
sI14
g696
sI15
g732
sI18
g840
sI24
g1046
sI26
g1112
sI29
g1208
sI30
g1239
sI32
g1302
sI33
g1332
sI35
(dp1362
sI36
(dp1363
sI38
(dp1364
sI39
(dp1365
sI42
(dp1366
sI44
(dp1367
sI50
(dp1368
sI53
(dp1369
sI54
(dp1370
sI59
(dp1371
sI61
(dp1372
sI66
(dp1373
sI67
(dp1374
sI72
(dp1375
sI74
(dp1376
sI81
(dp1377
sI84
(dp1378
sI85
(dp1379
sI88
(dp1380
sI95
(dp1381
sI97
(dp1382
sI98
(dp1383
sI100
(dp1384
sI107
(dp1385
sI110
(dp1386
sI111
(dp1387
sI114
(dp1388
sI121
(dp1389
sI123
(dp1390
ssI35
(dp1391
I2
g237
sI3
g277
sI8
g474
sI10
g549
sI15
g733
sI16
g769
sI19
g876
sI25
g1080
sI27
g1145
sI30
g1240
sI31
g1271
sI33
g1333
sI34
g1362
sI36
(dp1392
sI37
(dp1393
sI39
(dp1394
sI40
(dp1395
sI43
(dp1396
sI45
(dp1397
sI51
(dp1398
sI54
(dp1399
sI55
(dp1400
sI60
(dp1401
sI62
(dp1402
sI67
(dp1403
sI68
(dp1404
sI73
(dp1405
sI75
(dp1406
sI82
(dp1407
sI85
(dp1408
sI86
(dp1409
sI89
(dp1410
sI96
(dp1411
sI98
(dp1412
sI99
(dp1413
sI101
(dp1414
sI108
(dp1415
sI111
(dp1416
sI112
(dp1417
sI115
(dp1418
sI122
(dp1419
sI124
(dp1420
ssI36
(dp1421
I3
g278
sI4
g318
sI9
g512
sI11
g586
sI16
g770
sI17
g805
sI20
g911
sI26
g1113
sI28
g1177
sI31
g1272
sI32
g1303
sI34
g1363
sI35
g1392
sI37
(dp1422
sI38
(dp1423
sI40
(dp1424
sI41
(dp1425
sI44
(dp1426
sI46
(dp1427
sI52
(dp1428
sI55
(dp1429
sI56
(dp1430
sI61
(dp1431
sI63
(dp1432
sI68
(dp1433
sI69
(dp1434
sI74
(dp1435
sI76
(dp1436
sI83
(dp1437
sI86
(dp1438
sI87
(dp1439
sI90
(dp1440
sI97
(dp1441
sI99
(dp1442
sI100
(dp1443
sI102
(dp1444
sI109
(dp1445
sI112
(dp1446
sI113
(dp1447
sI116
(dp1448
sI123
(dp1449
sI125
(dp1450
ssI37
(dp1451
I4
g319
sI5
g358
sI10
g550
sI12
g623
sI17
g806
sI18
g841
sI21
g945
sI27
g1146
sI29
g1209
sI32
g1304
sI33
g1334
sI35
g1393
sI36
g1422
sI38
(dp1452
sI39
(dp1453
sI41
(dp1454
sI42
(dp1455
sI45
(dp1456
sI47
(dp1457
sI53
(dp1458
sI56
(dp1459
sI57
(dp1460
sI62
(dp1461
sI64
(dp1462
sI69
(dp1463
sI70
(dp1464
sI75
(dp1465
sI77
(dp1466
sI84
(dp1467
sI87
(dp1468
sI88
(dp1469
sI91
(dp1470
sI98
(dp1471
sI100
(dp1472
sI101
(dp1473
sI103
(dp1474
sI110
(dp1475
sI113
(dp1476
sI114
(dp1477
sI117
(dp1478
sI124
(dp1479
sI126
(dp1480
ssI38
(dp1481
I0
g153
sI5
g359
sI6
g397
sI11
g587
sI13
g660
sI18
g842
sI19
g877
sI22
g979
sI28
g1178
sI30
g1241
sI33
g1335
sI34
g1364
sI36
g1423
sI37
g1452
sI39
(dp1482
sI40
(dp1483
sI42
(dp1484
sI43
(dp1485
sI46
(dp1486
sI48
(dp1487
sI54
(dp1488
sI57
(dp1489
sI58
(dp1490
sI63
(dp1491
sI65
(dp1492
sI70
(dp1493
sI71
(dp1494
sI76
(dp1495
sI78
(dp1496
sI85
(dp1497
sI88
(dp1498
sI89
(dp1499
sI92
(dp1500
sI99
(dp1501
sI101
(dp1502
sI102
(dp1503
sI104
(dp1504
sI111
(dp1505
sI114
(dp1506
sI115
(dp1507
sI118
(dp1508
sI125
(dp1509
ssI39
(dp1510
I1
g196
sI6
g398
sI7
g436
sI12
g624
sI14
g697
sI19
g878
sI20
g912
sI23
g1013
sI29
g1210
sI31
g1273
sI34
g1365
sI35
g1394
sI37
g1453
sI38
g1482
sI40
(dp1511
sI41
(dp1512
sI43
(dp1513
sI44
(dp1514
sI47
(dp1515
sI49
(dp1516
sI55
(dp1517
sI58
(dp1518
sI59
(dp1519
sI64
(dp1520
sI66
(dp1521
sI71
(dp1522
sI72
(dp1523
sI77
(dp1524
sI79
(dp1525
sI86
(dp1526
sI89
(dp1527
sI90
(dp1528
sI93
(dp1529
sI100
(dp1530
sI102
(dp1531
sI103
(dp1532
sI105
(dp1533
sI112
(dp1534
sI115
(dp1535
sI116
(dp1536
sI119
(dp1537
sI126
(dp1538
ssI40
(dp1539
I0
g154
sI2
g238
sI7
g437
sI8
g475
sI13
g661
sI15
g734
sI20
g913
sI21
g946
sI24
g1047
sI30
g1242
sI32
g1305
sI35
g1395
sI36
g1424
sI38
g1483
sI39
g1511
sI41
(dp1540
sI42
(dp1541
sI44
(dp1542
sI45
(dp1543
sI48
(dp1544
sI50
(dp1545
sI56
(dp1546
sI59
(dp1547
sI60
(dp1548
sI65
(dp1549
sI67
(dp1550
sI72
(dp1551
sI73
(dp1552
sI78
(dp1553
sI80
(dp1554
sI87
(dp1555
sI90
(dp1556
sI91
(dp1557
sI94
(dp1558
sI101
(dp1559
sI103
(dp1560
sI104
(dp1561
sI106
(dp1562
sI113
(dp1563
sI116
(dp1564
sI117
(dp1565
sI120
(dp1566
ssI41
(dp1567
I1
g197
sI3
g279
sI8
g476
sI9
g513
sI14
g698
sI16
g771
sI21
g947
sI22
g980
sI25
g1081
sI31
g1274
sI33
g1336
sI36
g1425
sI37
g1454
sI39
g1512
sI40
g1540
sI42
(dp1568
sI43
(dp1569
sI45
(dp1570
sI46
(dp1571
sI49
(dp1572
sI51
(dp1573
sI57
(dp1574
sI60
(dp1575
sI61
(dp1576
sI66
(dp1577
sI68
(dp1578
sI73
(dp1579
sI74
(dp1580
sI79
(dp1581
sI81
(dp1582
sI88
(dp1583
sI91
(dp1584
sI92
(dp1585
sI95
(dp1586
sI102
(dp1587
sI104
(dp1588
sI105
(dp1589
sI107
(dp1590
sI114
(dp1591
sI117
(dp1592
sI118
(dp1593
sI121
(dp1594
ssI42
(dp1595
I2
g239
sI4
g320
sI9
g514
sI10
g551
sI15
g735
sI17
g807
sI22
g981
sI23
g1014
sI26
g1114
sI32
g1306
sI34
g1366
sI37
g1455
sI38
g1484
sI40
g1541
sI41
g1568
sI43
(dp1596
sI44
(dp1597
sI46
(dp1598
sI47
(dp1599
sI50
(dp1600
sI52
(dp1601
sI58
(dp1602
sI61
(dp1603
sI62
(dp1604
sI67
(dp1605
sI69
(dp1606
sI74
(dp1607
sI75
(dp1608
sI80
(dp1609
sI82
(dp1610
sI89
(dp1611
sI92
(dp1612
sI93
(dp1613
sI96
(dp1614
sI103
(dp1615
sI105
(dp1616
sI106
(dp1617
sI108
(dp1618
sI115
(dp1619
sI118
(dp1620
sI119
(dp1621
sI122
(dp1622
ssI43
(dp1623
I3
g280
sI5
g360
sI10
g552
sI11
g588
sI16
g772
sI18
g843
sI23
g1015
sI24
g1048
sI27
g1147
sI33
g1337
sI35
g1396
sI38
g1485
sI39
g1513
sI41
g1569
sI42
g1596
sI44
(dp1624
sI45
(dp1625
sI47
(dp1626
sI48
(dp1627
sI51
(dp1628
sI53
(dp1629
sI59
(dp1630
sI62
(dp1631
sI63
(dp1632
sI68
(dp1633
sI70
(dp1634
sI75
(dp1635
sI76
(dp1636
sI81
(dp1637
sI83
(dp1638
sI90
(dp1639
sI93
(dp1640
sI94
(dp1641
sI97
(dp1642
sI104
(dp1643
sI106
(dp1644
sI107
(dp1645
sI109
(dp1646
sI116
(dp1647
sI119
(dp1648
sI120
(dp1649
sI123
(dp1650
ssI44
(dp1651
I4
g321
sI6
g399
sI11
g589
sI12
g625
sI17
g808
sI19
g879
sI24
g1049
sI25
g1082
sI28
g1179
sI34
g1367
sI36
g1426
sI39
g1514
sI40
g1542
sI42
g1597
sI43
g1624
sI45
(dp1652
sI46
(dp1653
sI48
(dp1654
sI49
(dp1655
sI52
(dp1656
sI54
(dp1657
sI60
(dp1658
sI63
(dp1659
sI64
(dp1660
sI69
(dp1661
sI71
(dp1662
sI76
(dp1663
sI77
(dp1664
sI82
(dp1665
sI84
(dp1666
sI91
(dp1667
sI94
(dp1668
sI95
(dp1669
sI98
(dp1670
sI105
(dp1671
sI107
(dp1672
sI108
(dp1673
sI110
(dp1674
sI117
(dp1675
sI120
(dp1676
sI121
(dp1677
sI124
(dp1678
ssI45
(dp1679
I5
g361
sI7
g438
sI12
g626
sI13
g662
sI18
g844
sI20
g914
sI25
g1083
sI26
g1115
sI29
g1211
sI35
g1397
sI37
g1456
sI40
g1543
sI41
g1570
sI43
g1625
sI44
g1652
sI46
(dp1680
sI47
(dp1681
sI49
(dp1682
sI50
(dp1683
sI53
(dp1684
sI55
(dp1685
sI61
(dp1686
sI64
(dp1687
sI65
(dp1688
sI70
(dp1689
sI72
(dp1690
sI77
(dp1691
sI78
(dp1692
sI83
(dp1693
sI85
(dp1694
sI92
(dp1695
sI95
(dp1696
sI96
(dp1697
sI99
(dp1698
sI106
(dp1699
sI108
(dp1700
sI109
(dp1701
sI111
(dp1702
sI118
(dp1703
sI121
(dp1704
sI122
(dp1705
sI125
(dp1706
ssI46
(dp1707
I6
g400
sI8
g477
sI13
g663
sI14
g699
sI19
g880
sI21
g948
sI26
g1116
sI27
g1148
sI30
g1243
sI36
g1427
sI38
g1486
sI41
g1571
sI42
g1598
sI44
g1653
sI45
g1680
sI47
(dp1708
sI48
(dp1709
sI50
(dp1710
sI51
(dp1711
sI54
(dp1712
sI56
(dp1713
sI62
(dp1714
sI65
(dp1715
sI66
(dp1716
sI71
(dp1717
sI73
(dp1718
sI78
(dp1719
sI79
(dp1720
sI84
(dp1721
sI86
(dp1722
sI93
(dp1723
sI96
(dp1724
sI97
(dp1725
sI100
(dp1726
sI107
(dp1727
sI109
(dp1728
sI110
(dp1729
sI112
(dp1730
sI119
(dp1731
sI122
(dp1732
sI123
(dp1733
sI126
(dp1734
ssI47
(dp1735
I0
g155
sI7
g439
sI9
g515
sI14
g700
sI15
g736
sI20
g915
sI22
g982
sI27
g1149
sI28
g1180
sI31
g1275
sI37
g1457
sI39
g1515
sI42
g1599
sI43
g1626
sI45
g1681
sI46
g1708
sI48
(dp1736
sI49
(dp1737
sI51
(dp1738
sI52
(dp1739
sI55
(dp1740
sI57
(dp1741
sI63
(dp1742
sI66
(dp1743
sI67
(dp1744
sI72
(dp1745
sI74
(dp1746
sI79
(dp1747
sI80
(dp1748
sI85
(dp1749
sI87
(dp1750
sI94
(dp1751
sI97
(dp1752
sI98
(dp1753
sI101
(dp1754
sI108
(dp1755
sI110
(dp1756
sI111
(dp1757
sI113
(dp1758
sI120
(dp1759
sI123
(dp1760
sI124
(dp1761
ssI48
(dp1762
I1
g198
sI8
g478
sI10
g553
sI15
g737
sI16
g773
sI21
g949
sI23
g1016
sI28
g1181
sI29
g1212
sI32
g1307
sI38
g1487
sI40
g1544
sI43
g1627
sI44
g1654
sI46
g1709
sI47
g1736
sI49
(dp1763
sI50
(dp1764
sI52
(dp1765
sI53
(dp1766
sI56
(dp1767
sI58
(dp1768
sI64
(dp1769
sI67
(dp1770
sI68
(dp1771
sI73
(dp1772
sI75
(dp1773
sI80
(dp1774
sI81
(dp1775
sI86
(dp1776
sI88
(dp1777
sI95
(dp1778
sI98
(dp1779
sI99
(dp1780
sI102
(dp1781
sI109
(dp1782
sI111
(dp1783
sI112
(dp1784
sI114
(dp1785
sI121
(dp1786
sI124
(dp1787
sI125
(dp1788
ssI49
(dp1789
I2
g240
sI9
g516
sI11
g590
sI16
g774
sI17
g809
sI22
g983
sI24
g1050
sI29
g1213
sI30
g1244
sI33
g1338
sI39
g1516
sI41
g1572
sI44
g1655
sI45
g1682
sI47
g1737
sI48
g1763
sI50
(dp1790
sI51
(dp1791
sI53
(dp1792
sI54
(dp1793
sI57
(dp1794
sI59
(dp1795
sI65
(dp1796
sI68
(dp1797
sI69
(dp1798
sI74
(dp1799
sI76
(dp1800
sI81
(dp1801
sI82
(dp1802
sI87
(dp1803
sI89
(dp1804
sI96
(dp1805
sI99
(dp1806
sI100
(dp1807
sI103
(dp1808
sI110
(dp1809
sI112
(dp1810
sI113
(dp1811
sI115
(dp1812
sI122
(dp1813
sI125
(dp1814
sI126
(dp1815
ssI50
(dp1816
I0
g156
sI3
g281
sI10
g554
sI12
g627
sI17
g810
sI18
g845
sI23
g1017
sI25
g1084
sI30
g1245
sI31
g1276
sI34
g1368
sI40
g1545
sI42
g1600
sI45
g1683
sI46
g1710
sI48
g1764
sI49
g1790
sI51
(dp1817
sI52
(dp1818
sI54
(dp1819
sI55
(dp1820
sI58
(dp1821
sI60
(dp1822
sI66
(dp1823
sI69
(dp1824
sI70
(dp1825
sI75
(dp1826
sI77
(dp1827
sI82
(dp1828
sI83
(dp1829
sI88
(dp1830
sI90
(dp1831
sI97
(dp1832
sI100
(dp1833
sI101
(dp1834
sI104
(dp1835
sI111
(dp1836
sI113
(dp1837
sI114
(dp1838
sI116
(dp1839
sI123
(dp1840
sI126
(dp1841
ssI51
(dp1842
I0
g157
sI1
g199
sI4
g322
sI11
g591
sI13
g664
sI18
g846
sI19
g881
sI24
g1051
sI26
g1117
sI31
g1277
sI32
g1308
sI35
g1398
sI41
g1573
sI43
g1628
sI46
g1711
sI47
g1738
sI49
g1791
sI50
g1817
sI52
(dp1843
sI53
(dp1844
sI55
(dp1845
sI56
(dp1846
sI59
(dp1847
sI61
(dp1848
sI67
(dp1849
sI70
(dp1850
sI71
(dp1851
sI76
(dp1852
sI78
(dp1853
sI83
(dp1854
sI84
(dp1855
sI89
(dp1856
sI91
(dp1857
sI98
(dp1858
sI101
(dp1859
sI102
(dp1860
sI105
(dp1861
sI112
(dp1862
sI114
(dp1863
sI115
(dp1864
sI117
(dp1865
sI124
(dp1866
ssI52
(dp1867
I1
g200
sI2
g241
sI5
g362
sI12
g628
sI14
g701
sI19
g882
sI20
g916
sI25
g1085
sI27
g1150
sI32
g1309
sI33
g1339
sI36
g1428
sI42
g1601
sI44
g1656
sI47
g1739
sI48
g1765
sI50
g1818
sI51
g1843
sI53
(dp1868
sI54
(dp1869
sI56
(dp1870
sI57
(dp1871
sI60
(dp1872
sI62
(dp1873
sI68
(dp1874
sI71
(dp1875
sI72
(dp1876
sI77
(dp1877
sI79
(dp1878
sI84
(dp1879
sI85
(dp1880
sI90
(dp1881
sI92
(dp1882
sI99
(dp1883
sI102
(dp1884
sI103
(dp1885
sI106
(dp1886
sI113
(dp1887
sI115
(dp1888
sI116
(dp1889
sI118
(dp1890
sI125
(dp1891
ssI53
(dp1892
I2
g242
sI3
g282
sI6
g401
sI13
g665
sI15
g738
sI20
g917
sI21
g950
sI26
g1118
sI28
g1182
sI33
g1340
sI34
g1369
sI37
g1458
sI43
g1629
sI45
g1684
sI48
g1766
sI49
g1792
sI51
g1844
sI52
g1868
sI54
(dp1893
sI55
(dp1894
sI57
(dp1895
sI58
(dp1896
sI61
(dp1897
sI63
(dp1898
sI69
(dp1899
sI72
(dp1900
sI73
(dp1901
sI78
(dp1902
sI80
(dp1903
sI85
(dp1904
sI86
(dp1905
sI91
(dp1906
sI93
(dp1907
sI100
(dp1908
sI103
(dp1909
sI104
(dp1910
sI107
(dp1911
sI114
(dp1912
sI116
(dp1913
sI117
(dp1914
sI119
(dp1915
sI126
(dp1916
ssI54
(dp1917
I0
g158
sI3
g283
sI4
g323
sI7
g440
sI14
g702
sI16
g775
sI21
g951
sI22
g984
sI27
g1151
sI29
g1214
sI34
g1370
sI35
g1399
sI38
g1488
sI44
g1657
sI46
g1712
sI49
g1793
sI50
g1819
sI52
g1869
sI53
g1893
sI55
(dp1918
sI56
(dp1919
sI58
(dp1920
sI59
(dp1921
sI62
(dp1922
sI64
(dp1923
sI70
(dp1924
sI73
(dp1925
sI74
(dp1926
sI79
(dp1927
sI81
(dp1928
sI86
(dp1929
sI87
(dp1930
sI92
(dp1931
sI94
(dp1932
sI101
(dp1933
sI104
(dp1934
sI105
(dp1935
sI108
(dp1936
sI115
(dp1937
sI117
(dp1938
sI118
(dp1939
sI120
(dp1940
ssI55
(dp1941
I1
g201
sI4
g324
sI5
g363
sI8
g479
sI15
g739
sI17
g811
sI22
g985
sI23
g1018
sI28
g1183
sI30
g1246
sI35
g1400
sI36
g1429
sI39
g1517
sI45
g1685
sI47
g1740
sI50
g1820
sI51
g1845
sI53
g1894
sI54
g1918
sI56
(dp1942
sI57
(dp1943
sI59
(dp1944
sI60
(dp1945
sI63
(dp1946
sI65
(dp1947
sI71
(dp1948
sI74
(dp1949
sI75
(dp1950
sI80
(dp1951
sI82
(dp1952
sI87
(dp1953
sI88
(dp1954
sI93
(dp1955
sI95
(dp1956
sI102
(dp1957
sI105
(dp1958
sI106
(dp1959
sI109
(dp1960
sI116
(dp1961
sI118
(dp1962
sI119
(dp1963
sI121
(dp1964
ssI56
(dp1965
I2
g243
sI5
g364
sI6
g402
sI9
g517
sI16
g776
sI18
g847
sI23
g1019
sI24
g1052
sI29
g1215
sI31
g1278
sI36
g1430
sI37
g1459
sI40
g1546
sI46
g1713
sI48
g1767
sI51
g1846
sI52
g1870
sI54
g1919
sI55
g1942
sI57
(dp1966
sI58
(dp1967
sI60
(dp1968
sI61
(dp1969
sI64
(dp1970
sI66
(dp1971
sI72
(dp1972
sI75
(dp1973
sI76
(dp1974
sI81
(dp1975
sI83
(dp1976
sI88
(dp1977
sI89
(dp1978
sI94
(dp1979
sI96
(dp1980
sI103
(dp1981
sI106
(dp1982
sI107
(dp1983
sI110
(dp1984
sI117
(dp1985
sI119
(dp1986
sI120
(dp1987
sI122
(dp1988
ssI57
(dp1989
I3
g284
sI6
g403
sI7
g441
sI10
g555
sI17
g812
sI19
g883
sI24
g1053
sI25
g1086
sI30
g1247
sI32
g1310
sI37
g1460
sI38
g1489
sI41
g1574
sI47
g1741
sI49
g1794
sI52
g1871
sI53
g1895
sI55
g1943
sI56
g1966
sI58
(dp1990
sI59
(dp1991
sI61
(dp1992
sI62
(dp1993
sI65
(dp1994
sI67
(dp1995
sI73
(dp1996
sI76
(dp1997
sI77
(dp1998
sI82
(dp1999
sI84
(dp2000
sI89
(dp2001
sI90
(dp2002
sI95
(dp2003
sI97
(dp2004
sI104
(dp2005
sI107
(dp2006
sI108
(dp2007
sI111
(dp2008
sI118
(dp2009
sI120
(dp2010
sI121
(dp2011
sI123
(dp2012
ssI58
(dp2013
I4
g325
sI7
g442
sI8
g480
sI11
g592
sI18
g848
sI20
g918
sI25
g1087
sI26
g1119
sI31
g1279
sI33
g1341
sI38
g1490
sI39
g1518
sI42
g1602
sI48
g1768
sI50
g1821
sI53
g1896
sI54
g1920
sI56
g1967
sI57
g1990
sI59
(dp2014
sI60
(dp2015
sI62
(dp2016
sI63
(dp2017
sI66
(dp2018
sI68
(dp2019
sI74
(dp2020
sI77
(dp2021
sI78
(dp2022
sI83
(dp2023
sI85
(dp2024
sI90
(dp2025
sI91
(dp2026
sI96
(dp2027
sI98
(dp2028
sI105
(dp2029
sI108
(dp2030
sI109
(dp2031
sI112
(dp2032
sI119
(dp2033
sI121
(dp2034
sI122
(dp2035
sI124
(dp2036
ssI59
(dp2037
I5
g365
sI8
g481
sI9
g518
sI12
g629
sI19
g884
sI21
g952
sI26
g1120
sI27
g1152
sI32
g1311
sI34
g1371
sI39
g1519
sI40
g1547
sI43
g1630
sI49
g1795
sI51
g1847
sI54
g1921
sI55
g1944
sI57
g1991
sI58
g2014
sI60
(dp2038
sI61
(dp2039
sI63
(dp2040
sI64
(dp2041
sI67
(dp2042
sI69
(dp2043
sI75
(dp2044
sI78
(dp2045
sI79
(dp2046
sI84
(dp2047
sI86
(dp2048
sI91
(dp2049
sI92
(dp2050
sI97
(dp2051
sI99
(dp2052
sI106
(dp2053
sI109
(dp2054
sI110
(dp2055
sI113
(dp2056
sI120
(dp2057
sI122
(dp2058
sI123
(dp2059
sI125
(dp2060
ssI60
(dp2061
I6
g404
sI9
g519
sI10
g556
sI13
g666
sI20
g919
sI22
g986
sI27
g1153
sI28
g1184
sI33
g1342
sI35
g1401
sI40
g1548
sI41
g1575
sI44
g1658
sI50
g1822
sI52
g1872
sI55
g1945
sI56
g1968
sI58
g2015
sI59
g2038
sI61
(dp2062
sI62
(dp2063
sI64
(dp2064
sI65
(dp2065
sI68
(dp2066
sI70
(dp2067
sI76
(dp2068
sI79
(dp2069
sI80
(dp2070
sI85
(dp2071
sI87
(dp2072
sI92
(dp2073
sI93
(dp2074
sI98
(dp2075
sI100
(dp2076
sI107
(dp2077
sI110
(dp2078
sI111
(dp2079
sI114
(dp2080
sI121
(dp2081
sI123
(dp2082
sI124
(dp2083
sI126
(dp2084
ssI61
(dp2085
I0
g159
sI7
g443
sI10
g557
sI11
g593
sI14
g703
sI21
g953
sI23
g1020
sI28
g1185
sI29
g1216
sI34
g1372
sI36
g1431
sI41
g1576
sI42
g1603
sI45
g1686
sI51
g1848
sI53
g1897
sI56
g1969
sI57
g1992
sI59
g2039
sI60
g2062
sI62
(dp2086
sI63
(dp2087
sI65
(dp2088
sI66
(dp2089
sI69
(dp2090
sI71
(dp2091
sI77
(dp2092
sI80
(dp2093
sI81
(dp2094
sI86
(dp2095
sI88
(dp2096
sI93
(dp2097
sI94
(dp2098
sI99
(dp2099
sI101
(dp2100
sI108
(dp2101
sI111
(dp2102
sI112
(dp2103
sI115
(dp2104
sI122
(dp2105
sI124
(dp2106
sI125
(dp2107
ssI62
(dp2108
I1
g202
sI8
g482
sI11
g594
sI12
g630
sI15
g740
sI22
g987
sI24
g1054
sI29
g1217
sI30
g1248
sI35
g1402
sI37
g1461
sI42
g1604
sI43
g1631
sI46
g1714
sI52
g1873
sI54
g1922
sI57
g1993
sI58
g2016
sI60
g2063
sI61
g2086
sI63
(dp2109
sI64
(dp2110
sI66
(dp2111
sI67
(dp2112
sI70
(dp2113
sI72
(dp2114
sI78
(dp2115
sI81
(dp2116
sI82
(dp2117
sI87
(dp2118
sI89
(dp2119
sI94
(dp2120
sI95
(dp2121
sI100
(dp2122
sI102
(dp2123
sI109
(dp2124
sI112
(dp2125
sI113
(dp2126
sI116
(dp2127
sI123
(dp2128
sI125
(dp2129
sI126
(dp2130
ssI63
(dp2131
I0
g160
sI2
g244
sI9
g520
sI12
g631
sI13
g667
sI16
g777
sI23
g1021
sI25
g1088
sI30
g1249
sI31
g1280
sI36
g1432
sI38
g1491
sI43
g1632
sI44
g1659
sI47
g1742
sI53
g1898
sI55
g1946
sI58
g2017
sI59
g2040
sI61
g2087
sI62
g2109
sI64
(dp2132
sI65
(dp2133
sI67
(dp2134
sI68
(dp2135
sI71
(dp2136
sI73
(dp2137
sI79
(dp2138
sI82
(dp2139
sI83
(dp2140
sI88
(dp2141
sI90
(dp2142
sI95
(dp2143
sI96
(dp2144
sI101
(dp2145
sI103
(dp2146
sI110
(dp2147
sI113
(dp2148
sI114
(dp2149
sI117
(dp2150
sI124
(dp2151
sI126
(dp2152
ssI64
(dp2153
I0
g161
sI1
g203
sI3
g285
sI10
g558
sI13
g668
sI14
g704
sI17
g813
sI24
g1055
sI26
g1121
sI31
g1281
sI32
g1312
sI37
g1462
sI39
g1520
sI44
g1660
sI45
g1687
sI48
g1769
sI54
g1923
sI56
g1970
sI59
g2041
sI60
g2064
sI62
g2110
sI63
g2132
sI65
(dp2154
sI66
(dp2155
sI68
(dp2156
sI69
(dp2157
sI72
(dp2158
sI74
(dp2159
sI80
(dp2160
sI83
(dp2161
sI84
(dp2162
sI89
(dp2163
sI91
(dp2164
sI96
(dp2165
sI97
(dp2166
sI102
(dp2167
sI104
(dp2168
sI111
(dp2169
sI114
(dp2170
sI115
(dp2171
sI118
(dp2172
sI125
(dp2173
ssI65
(dp2174
I1
g204
sI2
g245
sI4
g326
sI11
g595
sI14
g705
sI15
g741
sI18
g849
sI25
g1089
sI27
g1154
sI32
g1313
sI33
g1343
sI38
g1492
sI40
g1549
sI45
g1688
sI46
g1715
sI49
g1796
sI55
g1947
sI57
g1994
sI60
g2065
sI61
g2088
sI63
g2133
sI64
g2154
sI66
(dp2175
sI67
(dp2176
sI69
(dp2177
sI70
(dp2178
sI73
(dp2179
sI75
(dp2180
sI81
(dp2181
sI84
(dp2182
sI85
(dp2183
sI90
(dp2184
sI92
(dp2185
sI97
(dp2186
sI98
(dp2187
sI103
(dp2188
sI105
(dp2189
sI112
(dp2190
sI115
(dp2191
sI116
(dp2192
sI119
(dp2193
sI126
(dp2194
ssI66
(dp2195
I0
g162
sI2
g246
sI3
g286
sI5
g366
sI12
g632
sI15
g742
sI16
g778
sI19
g885
sI26
g1122
sI28
g1186
sI33
g1344
sI34
g1373
sI39
g1521
sI41
g1577
sI46
g1716
sI47
g1743
sI50
g1823
sI56
g1971
sI58
g2018
sI61
g2089
sI62
g2111
sI64
g2155
sI65
g2175
sI67
(dp2196
sI68
(dp2197
sI70
(dp2198
sI71
(dp2199
sI74
(dp2200
sI76
(dp2201
sI82
(dp2202
sI85
(dp2203
sI86
(dp2204
sI91
(dp2205
sI93
(dp2206
sI98
(dp2207
sI99
(dp2208
sI104
(dp2209
sI106
(dp2210
sI113
(dp2211
sI116
(dp2212
sI117
(dp2213
sI120
(dp2214
ssI67
(dp2215
I1
g205
sI3
g287
sI4
g327
sI6
g405
sI13
g669
sI16
g779
sI17
g814
sI20
g920
sI27
g1155
sI29
g1218
sI34
g1374
sI35
g1403
sI40
g1550
sI42
g1605
sI47
g1744
sI48
g1770
sI51
g1849
sI57
g1995
sI59
g2042
sI62
g2112
sI63
g2134
sI65
g2176
sI66
g2196
sI68
(dp2216
sI69
(dp2217
sI71
(dp2218
sI72
(dp2219
sI75
(dp2220
sI77
(dp2221
sI83
(dp2222
sI86
(dp2223
sI87
(dp2224
sI92
(dp2225
sI94
(dp2226
sI99
(dp2227
sI100
(dp2228
sI105
(dp2229
sI107
(dp2230
sI114
(dp2231
sI117
(dp2232
sI118
(dp2233
sI121
(dp2234
ssI68
(dp2235
I2
g247
sI4
g328
sI5
g367
sI7
g444
sI14
g706
sI17
g815
sI18
g850
sI21
g954
sI28
g1187
sI30
g1250
sI35
g1404
sI36
g1433
sI41
g1578
sI43
g1633
sI48
g1771
sI49
g1797
sI52
g1874
sI58
g2019
sI60
g2066
sI63
g2135
sI64
g2156
sI66
g2197
sI67
g2216
sI69
(dp2236
sI70
(dp2237
sI72
(dp2238
sI73
(dp2239
sI76
(dp2240
sI78
(dp2241
sI84
(dp2242
sI87
(dp2243
sI88
(dp2244
sI93
(dp2245
sI95
(dp2246
sI100
(dp2247
sI101
(dp2248
sI106
(dp2249
sI108
(dp2250
sI115
(dp2251
sI118
(dp2252
sI119
(dp2253
sI122
(dp2254
ssI69
(dp2255
I3
g288
sI5
g368
sI6
g406
sI8
g483
sI15
g743
sI18
g851
sI19
g886
sI22
g988
sI29
g1219
sI31
g1282
sI36
g1434
sI37
g1463
sI42
g1606
sI44
g1661
sI49
g1798
sI50
g1824
sI53
g1899
sI59
g2043
sI61
g2090
sI64
g2157
sI65
g2177
sI67
g2217
sI68
g2236
sI70
(dp2256
sI71
(dp2257
sI73
(dp2258
sI74
(dp2259
sI77
(dp2260
sI79
(dp2261
sI85
(dp2262
sI88
(dp2263
sI89
(dp2264
sI94
(dp2265
sI96
(dp2266
sI101
(dp2267
sI102
(dp2268
sI107
(dp2269
sI109
(dp2270
sI116
(dp2271
sI119
(dp2272
sI120
(dp2273
sI123
(dp2274
ssI70
(dp2275
I4
g329
sI6
g407
sI7
g445
sI9
g521
sI16
g780
sI19
g887
sI20
g921
sI23
g1022
sI30
g1251
sI32
g1314
sI37
g1464
sI38
g1493
sI43
g1634
sI45
g1689
sI50
g1825
sI51
g1850
sI54
g1924
sI60
g2067
sI62
g2113
sI65
g2178
sI66
g2198
sI68
g2237
sI69
g2256
sI71
(dp2276
sI72
(dp2277
sI74
(dp2278
sI75
(dp2279
sI78
(dp2280
sI80
(dp2281
sI86
(dp2282
sI89
(dp2283
sI90
(dp2284
sI95
(dp2285
sI97
(dp2286
sI102
(dp2287
sI103
(dp2288
sI108
(dp2289
sI110
(dp2290
sI117
(dp2291
sI120
(dp2292
sI121
(dp2293
sI124
(dp2294
ssI71
(dp2295
I5
g369
sI7
g446
sI8
g484
sI10
g559
sI17
g816
sI20
g922
sI21
g955
sI24
g1056
sI31
g1283
sI33
g1345
sI38
g1494
sI39
g1522
sI44
g1662
sI46
g1717
sI51
g1851
sI52
g1875
sI55
g1948
sI61
g2091
sI63
g2136
sI66
g2199
sI67
g2218
sI69
g2257
sI70
g2276
sI72
(dp2296
sI73
(dp2297
sI75
(dp2298
sI76
(dp2299
sI79
(dp2300
sI81
(dp2301
sI87
(dp2302
sI90
(dp2303
sI91
(dp2304
sI96
(dp2305
sI98
(dp2306
sI103
(dp2307
sI104
(dp2308
sI109
(dp2309
sI111
(dp2310
sI118
(dp2311
sI121
(dp2312
sI122
(dp2313
sI125
(dp2314
ssI72
(dp2315
I6
g408
sI8
g485
sI9
g522
sI11
g596
sI18
g852
sI21
g956
sI22
g989
sI25
g1090
sI32
g1315
sI34
g1375
sI39
g1523
sI40
g1551
sI45
g1690
sI47
g1745
sI52
g1876
sI53
g1900
sI56
g1972
sI62
g2114
sI64
g2158
sI67
g2219
sI68
g2238
sI70
g2277
sI71
g2296
sI73
(dp2316
sI74
(dp2317
sI76
(dp2318
sI77
(dp2319
sI80
(dp2320
sI82
(dp2321
sI88
(dp2322
sI91
(dp2323
sI92
(dp2324
sI97
(dp2325
sI99
(dp2326
sI104
(dp2327
sI105
(dp2328
sI110
(dp2329
sI112
(dp2330
sI119
(dp2331
sI122
(dp2332
sI123
(dp2333
sI126
(dp2334
ssI73
(dp2335
I0
g163
sI7
g447
sI9
g523
sI10
g560
sI12
g633
sI19
g888
sI22
g990
sI23
g1023
sI26
g1123
sI33
g1346
sI35
g1405
sI40
g1552
sI41
g1579
sI46
g1718
sI48
g1772
sI53
g1901
sI54
g1925
sI57
g1996
sI63
g2137
sI65
g2179
sI68
g2239
sI69
g2258
sI71
g2297
sI72
g2316
sI74
(dp2336
sI75
(dp2337
sI77
(dp2338
sI78
(dp2339
sI81
(dp2340
sI83
(dp2341
sI89
(dp2342
sI92
(dp2343
sI93
(dp2344
sI98
(dp2345
sI100
(dp2346
sI105
(dp2347
sI106
(dp2348
sI111
(dp2349
sI113
(dp2350
sI120
(dp2351
sI123
(dp2352
sI124
(dp2353
ssI74
(dp2354
I1
g206
sI8
g486
sI10
g561
sI11
g597
sI13
g670
sI20
g923
sI23
g1024
sI24
g1057
sI27
g1156
sI34
g1376
sI36
g1435
sI41
g1580
sI42
g1607
sI47
g1746
sI49
g1799
sI54
g1926
sI55
g1949
sI58
g2020
sI64
g2159
sI66
g2200
sI69
g2259
sI70
g2278
sI72
g2317
sI73
g2336
sI75
(dp2355
sI76
(dp2356
sI78
(dp2357
sI79
(dp2358
sI82
(dp2359
sI84
(dp2360
sI90
(dp2361
sI93
(dp2362
sI94
(dp2363
sI99
(dp2364
sI101
(dp2365
sI106
(dp2366
sI107
(dp2367
sI112
(dp2368
sI114
(dp2369
sI121
(dp2370
sI124
(dp2371
sI125
(dp2372
ssI75
(dp2373
I2
g248
sI9
g524
sI11
g598
sI12
g634
sI14
g707
sI21
g957
sI24
g1058
sI25
g1091
sI28
g1188
sI35
g1406
sI37
g1465
sI42
g1608
sI43
g1635
sI48
g1773
sI50
g1826
sI55
g1950
sI56
g1973
sI59
g2044
sI65
g2180
sI67
g2220
sI70
g2279
sI71
g2298
sI73
g2337
sI74
g2355
sI76
(dp2374
sI77
(dp2375
sI79
(dp2376
sI80
(dp2377
sI83
(dp2378
sI85
(dp2379
sI91
(dp2380
sI94
(dp2381
sI95
(dp2382
sI100
(dp2383
sI102
(dp2384
sI107
(dp2385
sI108
(dp2386
sI113
(dp2387
sI115
(dp2388
sI122
(dp2389
sI125
(dp2390
sI126
(dp2391
ssI76
(dp2392
I0
g164
sI3
g289
sI10
g562
sI12
g635
sI13
g671
sI15
g744
sI22
g991
sI25
g1092
sI26
g1124
sI29
g1220
sI36
g1436
sI38
g1495
sI43
g1636
sI44
g1663
sI49
g1800
sI51
g1852
sI56
g1974
sI57
g1997
sI60
g2068
sI66
g2201
sI68
g2240
sI71
g2299
sI72
g2318
sI74
g2356
sI75
g2374
sI77
(dp2393
sI78
(dp2394
sI80
(dp2395
sI81
(dp2396
sI84
(dp2397
sI86
(dp2398
sI92
(dp2399
sI95
(dp2400
sI96
(dp2401
sI101
(dp2402
sI103
(dp2403
sI108
(dp2404
sI109
(dp2405
sI114
(dp2406
sI116
(dp2407
sI123
(dp2408
sI126
(dp2409
ssI77
(dp2410
I0
g165
sI1
g207
sI4
g330
sI11
g599
sI13
g672
sI14
g708
sI16
g781
sI23
g1025
sI26
g1125
sI27
g1157
sI30
g1252
sI37
g1466
sI39
g1524
sI44
g1664
sI45
g1691
sI50
g1827
sI52
g1877
sI57
g1998
sI58
g2021
sI61
g2092
sI67
g2221
sI69
g2260
sI72
g2319
sI73
g2338
sI75
g2375
sI76
g2393
sI78
(dp2411
sI79
(dp2412
sI81
(dp2413
sI82
(dp2414
sI85
(dp2415
sI87
(dp2416
sI93
(dp2417
sI96
(dp2418
sI97
(dp2419
sI102
(dp2420
sI104
(dp2421
sI109
(dp2422
sI110
(dp2423
sI115
(dp2424
sI117
(dp2425
sI124
(dp2426
ssI78
(dp2427
I1
g208
sI2
g249
sI5
g370
sI12
g636
sI14
g709
sI15
g745
sI17
g817
sI24
g1059
sI27
g1158
sI28
g1189
sI31
g1284
sI38
g1496
sI40
g1553
sI45
g1692
sI46
g1719
sI51
g1853
sI53
g1902
sI58
g2022
sI59
g2045
sI62
g2115
sI68
g2241
sI70
g2280
sI73
g2339
sI74
g2357
sI76
g2394
sI77
g2411
sI79
(dp2428
sI80
(dp2429
sI82
(dp2430
sI83
(dp2431
sI86
(dp2432
sI88
(dp2433
sI94
(dp2434
sI97
(dp2435
sI98
(dp2436
sI103
(dp2437
sI105
(dp2438
sI110
(dp2439
sI111
(dp2440
sI116
(dp2441
sI118
(dp2442
sI125
(dp2443
ssI79
(dp2444
I2
g250
sI3
g290
sI6
g409
sI13
g673
sI15
g746
sI16
g782
sI18
g853
sI25
g1093
sI28
g1190
sI29
g1221
sI32
g1316
sI39
g1525
sI41
g1581
sI46
g1720
sI47
g1747
sI52
g1878
sI54
g1927
sI59
g2046
sI60
g2069
sI63
g2138
sI69
g2261
sI71
g2300
sI74
g2358
sI75
g2376
sI77
g2412
sI78
g2428
sI80
(dp2445
sI81
(dp2446
sI83
(dp2447
sI84
(dp2448
sI87
(dp2449
sI89
(dp2450
sI95
(dp2451
sI98
(dp2452
sI99
(dp2453
sI104
(dp2454
sI106
(dp2455
sI111
(dp2456
sI112
(dp2457
sI117
(dp2458
sI119
(dp2459
sI126
(dp2460
ssI80
(dp2461
I0
g166
sI3
g291
sI4
g331
sI7
g448
sI14
g710
sI16
g783
sI17
g818
sI19
g889
sI26
g1126
sI29
g1222
sI30
g1253
sI33
g1347
sI40
g1554
sI42
g1609
sI47
g1748
sI48
g1774
sI53
g1903
sI55
g1951
sI60
g2070
sI61
g2093
sI64
g2160
sI70
g2281
sI72
g2320
sI75
g2377
sI76
g2395
sI78
g2429
sI79
g2445
sI81
(dp2462
sI82
(dp2463
sI84
(dp2464
sI85
(dp2465
sI88
(dp2466
sI90
(dp2467
sI96
(dp2468
sI99
(dp2469
sI100
(dp2470
sI105
(dp2471
sI107
(dp2472
sI112
(dp2473
sI113
(dp2474
sI118
(dp2475
sI120
(dp2476
ssI81
(dp2477
I1
g209
sI4
g332
sI5
g371
sI8
g487
sI15
g747
sI17
g819
sI18
g854
sI20
g924
sI27
g1159
sI30
g1254
sI31
g1285
sI34
g1377
sI41
g1582
sI43
g1637
sI48
g1775
sI49
g1801
sI54
g1928
sI56
g1975
sI61
g2094
sI62
g2116
sI65
g2181
sI71
g2301
sI73
g2340
sI76
g2396
sI77
g2413
sI79
g2446
sI80
g2462
sI82
(dp2478
sI83
(dp2479
sI85
(dp2480
sI86
(dp2481
sI89
(dp2482
sI91
(dp2483
sI97
(dp2484
sI100
(dp2485
sI101
(dp2486
sI106
(dp2487
sI108
(dp2488
sI113
(dp2489
sI114
(dp2490
sI119
(dp2491
sI121
(dp2492
ssI82
(dp2493
I2
g251
sI5
g372
sI6
g410
sI9
g525
sI16
g784
sI18
g855
sI19
g890
sI21
g958
sI28
g1191
sI31
g1286
sI32
g1317
sI35
g1407
sI42
g1610
sI44
g1665
sI49
g1802
sI50
g1828
sI55
g1952
sI57
g1999
sI62
g2117
sI63
g2139
sI66
g2202
sI72
g2321
sI74
g2359
sI77
g2414
sI78
g2430
sI80
g2463
sI81
g2478
sI83
(dp2494
sI84
(dp2495
sI86
(dp2496
sI87
(dp2497
sI90
(dp2498
sI92
(dp2499
sI98
(dp2500
sI101
(dp2501
sI102
(dp2502
sI107
(dp2503
sI109
(dp2504
sI114
(dp2505
sI115
(dp2506
sI120
(dp2507
sI122
(dp2508
ssI83
(dp2509
I3
g292
sI6
g411
sI7
g449
sI10
g563
sI17
g820
sI19
g891
sI20
g925
sI22
g992
sI29
g1223
sI32
g1318
sI33
g1348
sI36
g1437
sI43
g1638
sI45
g1693
sI50
g1829
sI51
g1854
sI56
g1976
sI58
g2023
sI63
g2140
sI64
g2161
sI67
g2222
sI73
g2341
sI75
g2378
sI78
g2431
sI79
g2447
sI81
g2479
sI82
g2494
sI84
(dp2510
sI85
(dp2511
sI87
(dp2512
sI88
(dp2513
sI91
(dp2514
sI93
(dp2515
sI99
(dp2516
sI102
(dp2517
sI103
(dp2518
sI108
(dp2519
sI110
(dp2520
sI115
(dp2521
sI116
(dp2522
sI121
(dp2523
sI123
(dp2524
ssI84
(dp2525
I4
g333
sI7
g450
sI8
g488
sI11
g600
sI18
g856
sI20
g926
sI21
g959
sI23
g1026
sI30
g1255
sI33
g1349
sI34
g1378
sI37
g1467
sI44
g1666
sI46
g1721
sI51
g1855
sI52
g1879
sI57
g2000
sI59
g2047
sI64
g2162
sI65
g2182
sI68
g2242
sI74
g2360
sI76
g2397
sI79
g2448
sI80
g2464
sI82
g2495
sI83
g2510
sI85
(dp2526
sI86
(dp2527
sI88
(dp2528
sI89
(dp2529
sI92
(dp2530
sI94
(dp2531
sI100
(dp2532
sI103
(dp2533
sI104
(dp2534
sI109
(dp2535
sI111
(dp2536
sI116
(dp2537
sI117
(dp2538
sI122
(dp2539
sI124
(dp2540
ssI85
(dp2541
I5
g373
sI8
g489
sI9
g526
sI12
g637
sI19
g892
sI21
g960
sI22
g993
sI24
g1060
sI31
g1287
sI34
g1379
sI35
g1408
sI38
g1497
sI45
g1694
sI47
g1749
sI52
g1880
sI53
g1904
sI58
g2024
sI60
g2071
sI65
g2183
sI66
g2203
sI69
g2262
sI75
g2379
sI77
g2415
sI80
g2465
sI81
g2480
sI83
g2511
sI84
g2526
sI86
(dp2542
sI87
(dp2543
sI89
(dp2544
sI90
(dp2545
sI93
(dp2546
sI95
(dp2547
sI101
(dp2548
sI104
(dp2549
sI105
(dp2550
sI110
(dp2551
sI112
(dp2552
sI117
(dp2553
sI118
(dp2554
sI123
(dp2555
sI125
(dp2556
ssI86
(dp2557
I6
g412
sI9
g527
sI10
g564
sI13
g674
sI20
g927
sI22
g994
sI23
g1027
sI25
g1094
sI32
g1319
sI35
g1409
sI36
g1438
sI39
g1526
sI46
g1722
sI48
g1776
sI53
g1905
sI54
g1929
sI59
g2048
sI61
g2095
sI66
g2204
sI67
g2223
sI70
g2282
sI76
g2398
sI78
g2432
sI81
g2481
sI82
g2496
sI84
g2527
sI85
g2542
sI87
(dp2558
sI88
(dp2559
sI90
(dp2560
sI91
(dp2561
sI94
(dp2562
sI96
(dp2563
sI102
(dp2564
sI105
(dp2565
sI106
(dp2566
sI111
(dp2567
sI113
(dp2568
sI118
(dp2569
sI119
(dp2570
sI124
(dp2571
sI126
(dp2572
ssI87
(dp2573
I0
g167
sI7
g451
sI10
g565
sI11
g601
sI14
g711
sI21
g961
sI23
g1028
sI24
g1061
sI26
g1127
sI33
g1350
sI36
g1439
sI37
g1468
sI40
g1555
sI47
g1750
sI49
g1803
sI54
g1930
sI55
g1953
sI60
g2072
sI62
g2118
sI67
g2224
sI68
g2243
sI71
g2302
sI77
g2416
sI79
g2449
sI82
g2497
sI83
g2512
sI85
g2543
sI86
g2558
sI88
(dp2574
sI89
(dp2575
sI91
(dp2576
sI92
(dp2577
sI95
(dp2578
sI97
(dp2579
sI103
(dp2580
sI106
(dp2581
sI107
(dp2582
sI112
(dp2583
sI114
(dp2584
sI119
(dp2585
sI120
(dp2586
sI125
(dp2587
ssI88
(dp2588
I1
g210
sI8
g490
sI11
g602
sI12
g638
sI15
g748
sI22
g995
sI24
g1062
sI25
g1095
sI27
g1160
sI34
g1380
sI37
g1469
sI38
g1498
sI41
g1583
sI48
g1777
sI50
g1830
sI55
g1954
sI56
g1977
sI61
g2096
sI63
g2141
sI68
g2244
sI69
g2263
sI72
g2322
sI78
g2433
sI80
g2466
sI83
g2513
sI84
g2528
sI86
g2559
sI87
g2574
sI89
(dp2589
sI90
(dp2590
sI92
(dp2591
sI93
(dp2592
sI96
(dp2593
sI98
(dp2594
sI104
(dp2595
sI107
(dp2596
sI108
(dp2597
sI113
(dp2598
sI115
(dp2599
sI120
(dp2600
sI121
(dp2601
sI126
(dp2602
ssI89
(dp2603
I0
g168
sI2
g252
sI9
g528
sI12
g639
sI13
g675
sI16
g785
sI23
g1029
sI25
g1096
sI26
g1128
sI28
g1192
sI35
g1410
sI38
g1499
sI39
g1527
sI42
g1611
sI49
g1804
sI51
g1856
sI56
g1978
sI57
g2001
sI62
g2119
sI64
g2163
sI69
g2264
sI70
g2283
sI73
g2342
sI79
g2450
sI81
g2482
sI84
g2529
sI85
g2544
sI87
g2575
sI88
g2589
sI90
(dp2604
sI91
(dp2605
sI93
(dp2606
sI94
(dp2607
sI97
(dp2608
sI99
(dp2609
sI105
(dp2610
sI108
(dp2611
sI109
(dp2612
sI114
(dp2613
sI116
(dp2614
sI121
(dp2615
sI122
(dp2616
ssI90
(dp2617
I1
g211
sI3
g293
sI10
g566
sI13
g676
sI14
g712
sI17
g821
sI24
g1063
sI26
g1129
sI27
g1161
sI29
g1224
sI36
g1440
sI39
g1528
sI40
g1556
sI43
g1639
sI50
g1831
sI52
g1881
sI57
g2002
sI58
g2025
sI63
g2142
sI65
g2184
sI70
g2284
sI71
g2303
sI74
g2361
sI80
g2467
sI82
g2498
sI85
g2545
sI86
g2560
sI88
g2590
sI89
g2604
sI91
(dp2618
sI92
(dp2619
sI94
(dp2620
sI95
(dp2621
sI98
(dp2622
sI100
(dp2623
sI106
(dp2624
sI109
(dp2625
sI110
(dp2626
sI115
(dp2627
sI117
(dp2628
sI122
(dp2629
sI123
(dp2630
ssI91
(dp2631
I2
g253
sI4
g334
sI11
g603
sI14
g713
sI15
g749
sI18
g857
sI25
g1097
sI27
g1162
sI28
g1193
sI30
g1256
sI37
g1470
sI40
g1557
sI41
g1584
sI44
g1667
sI51
g1857
sI53
g1906
sI58
g2026
sI59
g2049
sI64
g2164
sI66
g2205
sI71
g2304
sI72
g2323
sI75
g2380
sI81
g2483
sI83
g2514
sI86
g2561
sI87
g2576
sI89
g2605
sI90
g2618
sI92
(dp2632
sI93
(dp2633
sI95
(dp2634
sI96
(dp2635
sI99
(dp2636
sI101
(dp2637
sI107
(dp2638
sI110
(dp2639
sI111
(dp2640
sI116
(dp2641
sI118
(dp2642
sI123
(dp2643
sI124
(dp2644
ssI92
(dp2645
I3
g294
sI5
g374
sI12
g640
sI15
g750
sI16
g786
sI19
g893
sI26
g1130
sI28
g1194
sI29
g1225
sI31
g1288
sI38
g1500
sI41
g1585
sI42
g1612
sI45
g1695
sI52
g1882
sI54
g1931
sI59
g2050
sI60
g2073
sI65
g2185
sI67
g2225
sI72
g2324
sI73
g2343
sI76
g2399
sI82
g2499
sI84
g2530
sI87
g2577
sI88
g2591
sI90
g2619
sI91
g2632
sI93
(dp2646
sI94
(dp2647
sI96
(dp2648
sI97
(dp2649
sI100
(dp2650
sI102
(dp2651
sI108
(dp2652
sI111
(dp2653
sI112
(dp2654
sI117
(dp2655
sI119
(dp2656
sI124
(dp2657
sI125
(dp2658
ssI93
(dp2659
I4
g335
sI6
g413
sI13
g677
sI16
g787
sI17
g822
sI20
g928
sI27
g1163
sI29
g1226
sI30
g1257
sI32
g1320
sI39
g1529
sI42
g1613
sI43
g1640
sI46
g1723
sI53
g1907
sI55
g1955
sI60
g2074
sI61
g2097
sI66
g2206
sI68
g2245
sI73
g2344
sI74
g2362
sI77
g2417
sI83
g2515
sI85
g2546
sI88
g2592
sI89
g2606
sI91
g2633
sI92
g2646
sI94
(dp2660
sI95
(dp2661
sI97
(dp2662
sI98
(dp2663
sI101
(dp2664
sI103
(dp2665
sI109
(dp2666
sI112
(dp2667
sI113
(dp2668
sI118
(dp2669
sI120
(dp2670
sI125
(dp2671
sI126
(dp2672
ssI94
(dp2673
I0
g169
sI5
g375
sI7
g452
sI14
g714
sI17
g823
sI18
g858
sI21
g962
sI28
g1195
sI30
g1258
sI31
g1289
sI33
g1351
sI40
g1558
sI43
g1641
sI44
g1668
sI47
g1751
sI54
g1932
sI56
g1979
sI61
g2098
sI62
g2120
sI67
g2226
sI69
g2265
sI74
g2363
sI75
g2381
sI78
g2434
sI84
g2531
sI86
g2562
sI89
g2607
sI90
g2620
sI92
g2647
sI93
g2660
sI95
(dp2674
sI96
(dp2675
sI98
(dp2676
sI99
(dp2677
sI102
(dp2678
sI104
(dp2679
sI110
(dp2680
sI113
(dp2681
sI114
(dp2682
sI119
(dp2683
sI121
(dp2684
sI126
(dp2685
ssI95
(dp2686
I0
g170
sI1
g212
sI6
g414
sI8
g491
sI15
g751
sI18
g859
sI19
g894
sI22
g996
sI29
g1227
sI31
g1290
sI32
g1321
sI34
g1381
sI41
g1586
sI44
g1669
sI45
g1696
sI48
g1778
sI55
g1956
sI57
g2003
sI62
g2121
sI63
g2143
sI68
g2246
sI70
g2285
sI75
g2382
sI76
g2400
sI79
g2451
sI85
g2547
sI87
g2578
sI90
g2621
sI91
g2634
sI93
g2661
sI94
g2674
sI96
(dp2687
sI97
(dp2688
sI99
(dp2689
sI100
(dp2690
sI103
(dp2691
sI105
(dp2692
sI111
(dp2693
sI114
(dp2694
sI115
(dp2695
sI120
(dp2696
sI122
(dp2697
ssI96
(dp2698
I1
g213
sI2
g254
sI7
g453
sI9
g529
sI16
g788
sI19
g895
sI20
g929
sI23
g1030
sI30
g1259
sI32
g1322
sI33
g1352
sI35
g1411
sI42
g1614
sI45
g1697
sI46
g1724
sI49
g1805
sI56
g1980
sI58
g2027
sI63
g2144
sI64
g2165
sI69
g2266
sI71
g2305
sI76
g2401
sI77
g2418
sI80
g2468
sI86
g2563
sI88
g2593
sI91
g2635
sI92
g2648
sI94
g2675
sI95
g2687
sI97
(dp2699
sI98
(dp2700
sI100
(dp2701
sI101
(dp2702
sI104
(dp2703
sI106
(dp2704
sI112
(dp2705
sI115
(dp2706
sI116
(dp2707
sI121
(dp2708
sI123
(dp2709
ssI97
(dp2710
I2
g255
sI3
g295
sI8
g492
sI10
g567
sI17
g824
sI20
g930
sI21
g963
sI24
g1064
sI31
g1291
sI33
g1353
sI34
g1382
sI36
g1441
sI43
g1642
sI46
g1725
sI47
g1752
sI50
g1832
sI57
g2004
sI59
g2051
sI64
g2166
sI65
g2186
sI70
g2286
sI72
g2325
sI77
g2419
sI78
g2435
sI81
g2484
sI87
g2579
sI89
g2608
sI92
g2649
sI93
g2662
sI95
g2688
sI96
g2699
sI98
(dp2711
sI99
(dp2712
sI101
(dp2713
sI102
(dp2714
sI105
(dp2715
sI107
(dp2716
sI113
(dp2717
sI116
(dp2718
sI117
(dp2719
sI122
(dp2720
sI124
(dp2721
ssI98
(dp2722
I3
g296
sI4
g336
sI9
g530
sI11
g604
sI18
g860
sI21
g964
sI22
g997
sI25
g1098
sI32
g1323
sI34
g1383
sI35
g1412
sI37
g1471
sI44
g1670
sI47
g1753
sI48
g1779
sI51
g1858
sI58
g2028
sI60
g2075
sI65
g2187
sI66
g2207
sI71
g2306
sI73
g2345
sI78
g2436
sI79
g2452
sI82
g2500
sI88
g2594
sI90
g2622
sI93
g2663
sI94
g2676
sI96
g2700
sI97
g2711
sI99
(dp2723
sI100
(dp2724
sI102
(dp2725
sI103
(dp2726
sI106
(dp2727
sI108
(dp2728
sI114
(dp2729
sI117
(dp2730
sI118
(dp2731
sI123
(dp2732
sI125
(dp2733
ssI99
(dp2734
I4
g337
sI5
g376
sI10
g568
sI12
g641
sI19
g896
sI22
g998
sI23
g1031
sI26
g1131
sI33
g1354
sI35
g1413
sI36
g1442
sI38
g1501
sI45
g1698
sI48
g1780
sI49
g1806
sI52
g1883
sI59
g2052
sI61
g2099
sI66
g2208
sI67
g2227
sI72
g2326
sI74
g2364
sI79
g2453
sI80
g2469
sI83
g2516
sI89
g2609
sI91
g2636
sI94
g2677
sI95
g2689
sI97
g2712
sI98
g2723
sI100
(dp2735
sI101
(dp2736
sI103
(dp2737
sI104
(dp2738
sI107
(dp2739
sI109
(dp2740
sI115
(dp2741
sI118
(dp2742
sI119
(dp2743
sI124
(dp2744
sI126
(dp2745
ssI100
(dp2746
I0
g171
sI5
g377
sI6
g415
sI11
g605
sI13
g678
sI20
g931
sI23
g1032
sI24
g1065
sI27
g1164
sI34
g1384
sI36
g1443
sI37
g1472
sI39
g1530
sI46
g1726
sI49
g1807
sI50
g1833
sI53
g1908
sI60
g2076
sI62
g2122
sI67
g2228
sI68
g2247
sI73
g2346
sI75
g2383
sI80
g2470
sI81
g2485
sI84
g2532
sI90
g2623
sI92
g2650
sI95
g2690
sI96
g2701
sI98
g2724
sI99
g2735
sI101
(dp2747
sI102
(dp2748
sI104
(dp2749
sI105
(dp2750
sI108
(dp2751
sI110
(dp2752
sI116
(dp2753
sI119
(dp2754
sI120
(dp2755
sI125
(dp2756
ssI101
(dp2757
I1
g214
sI6
g416
sI7
g454
sI12
g642
sI14
g715
sI21
g965
sI24
g1066
sI25
g1099
sI28
g1196
sI35
g1414
sI37
g1473
sI38
g1502
sI40
g1559
sI47
g1754
sI50
g1834
sI51
g1859
sI54
g1933
sI61
g2100
sI63
g2145
sI68
g2248
sI69
g2267
sI74
g2365
sI76
g2402
sI81
g2486
sI82
g2501
sI85
g2548
sI91
g2637
sI93
g2664
sI96
g2702
sI97
g2713
sI99
g2736
sI100
g2747
sI102
(dp2758
sI103
(dp2759
sI105
(dp2760
sI106
(dp2761
sI109
(dp2762
sI111
(dp2763
sI117
(dp2764
sI120
(dp2765
sI121
(dp2766
sI126
(dp2767
ssI102
(dp2768
I0
g172
sI2
g256
sI7
g455
sI8
g493
sI13
g679
sI15
g752
sI22
g999
sI25
g1100
sI26
g1132
sI29
g1228
sI36
g1444
sI38
g1503
sI39
g1531
sI41
g1587
sI48
g1781
sI51
g1860
sI52
g1884
sI55
g1957
sI62
g2123
sI64
g2167
sI69
g2268
sI70
g2287
sI75
g2384
sI77
g2420
sI82
g2502
sI83
g2517
sI86
g2564
sI92
g2651
sI94
g2678
sI97
g2714
sI98
g2725
sI100
g2748
sI101
g2758
sI103
(dp2769
sI104
(dp2770
sI106
(dp2771
sI107
(dp2772
sI110
(dp2773
sI112
(dp2774
sI118
(dp2775
sI121
(dp2776
sI122
(dp2777
ssI103
(dp2778
I1
g215
sI3
g297
sI8
g494
sI9
g531
sI14
g716
sI16
g789
sI23
g1033
sI26
g1133
sI27
g1165
sI30
g1260
sI37
g1474
sI39
g1532
sI40
g1560
sI42
g1615
sI49
g1808
sI52
g1885
sI53
g1909
sI56
g1981
sI63
g2146
sI65
g2188
sI70
g2288
sI71
g2307
sI76
g2403
sI78
g2437
sI83
g2518
sI84
g2533
sI87
g2580
sI93
g2665
sI95
g2691
sI98
g2726
sI99
g2737
sI101
g2759
sI102
g2769
sI104
(dp2779
sI105
(dp2780
sI107
(dp2781
sI108
(dp2782
sI111
(dp2783
sI113
(dp2784
sI119
(dp2785
sI122
(dp2786
sI123
(dp2787
ssI104
(dp2788
I2
g257
sI4
g338
sI9
g532
sI10
g569
sI15
g753
sI17
g825
sI24
g1067
sI27
g1166
sI28
g1197
sI31
g1292
sI38
g1504
sI40
g1561
sI41
g1588
sI43
g1643
sI50
g1835
sI53
g1910
sI54
g1934
sI57
g2005
sI64
g2168
sI66
g2209
sI71
g2308
sI72
g2327
sI77
g2421
sI79
g2454
sI84
g2534
sI85
g2549
sI88
g2595
sI94
g2679
sI96
g2703
sI99
g2738
sI100
g2749
sI102
g2770
sI103
g2779
sI105
(dp2789
sI106
(dp2790
sI108
(dp2791
sI109
(dp2792
sI112
(dp2793
sI114
(dp2794
sI120
(dp2795
sI123
(dp2796
sI124
(dp2797
ssI105
(dp2798
I3
g298
sI5
g378
sI10
g570
sI11
g606
sI16
g790
sI18
g861
sI25
g1101
sI28
g1198
sI29
g1229
sI32
g1324
sI39
g1533
sI41
g1589
sI42
g1616
sI44
g1671
sI51
g1861
sI54
g1935
sI55
g1958
sI58
g2029
sI65
g2189
sI67
g2229
sI72
g2328
sI73
g2347
sI78
g2438
sI80
g2471
sI85
g2550
sI86
g2565
sI89
g2610
sI95
g2692
sI97
g2715
sI100
g2750
sI101
g2760
sI103
g2780
sI104
g2789
sI106
(dp2799
sI107
(dp2800
sI109
(dp2801
sI110
(dp2802
sI113
(dp2803
sI115
(dp2804
sI121
(dp2805
sI124
(dp2806
sI125
(dp2807
ssI106
(dp2808
I4
g339
sI6
g417
sI11
g607
sI12
g643
sI17
g826
sI19
g897
sI26
g1134
sI29
g1230
sI30
g1261
sI33
g1355
sI40
g1562
sI42
g1617
sI43
g1644
sI45
g1699
sI52
g1886
sI55
g1959
sI56
g1982
sI59
g2053
sI66
g2210
sI68
g2249
sI73
g2348
sI74
g2366
sI79
g2455
sI81
g2487
sI86
g2566
sI87
g2581
sI90
g2624
sI96
g2704
sI98
g2727
sI101
g2761
sI102
g2771
sI104
g2790
sI105
g2799
sI107
(dp2809
sI108
(dp2810
sI110
(dp2811
sI111
(dp2812
sI114
(dp2813
sI116
(dp2814
sI122
(dp2815
sI125
(dp2816
sI126
(dp2817
ssI107
(dp2818
I0
g173
sI5
g379
sI7
g456
sI12
g644
sI13
g680
sI18
g862
sI20
g932
sI27
g1167
sI30
g1262
sI31
g1293
sI34
g1385
sI41
g1590
sI43
g1645
sI44
g1672
sI46
g1727
sI53
g1911
sI56
g1983
sI57
g2006
sI60
g2077
sI67
g2230
sI69
g2269
sI74
g2367
sI75
g2385
sI80
g2472
sI82
g2503
sI87
g2582
sI88
g2596
sI91
g2638
sI97
g2716
sI99
g2739
sI102
g2772
sI103
g2781
sI105
g2800
sI106
g2809
sI108
(dp2819
sI109
(dp2820
sI111
(dp2821
sI112
(dp2822
sI115
(dp2823
sI117
(dp2824
sI123
(dp2825
sI126
(dp2826
ssI108
(dp2827
I0
g174
sI1
g216
sI6
g418
sI8
g495
sI13
g681
sI14
g717
sI19
g898
sI21
g966
sI28
g1199
sI31
g1294
sI32
g1325
sI35
g1415
sI42
g1618
sI44
g1673
sI45
g1700
sI47
g1755
sI54
g1936
sI57
g2007
sI58
g2030
sI61
g2101
sI68
g2250
sI70
g2289
sI75
g2386
sI76
g2404
sI81
g2488
sI83
g2519
sI88
g2597
sI89
g2611
sI92
g2652
sI98
g2728
sI100
g2751
sI103
g2782
sI104
g2791
sI106
g2810
sI107
g2819
sI109
(dp2828
sI110
(dp2829
sI112
(dp2830
sI113
(dp2831
sI116
(dp2832
sI118
(dp2833
sI124
(dp2834
ssI109
(dp2835
I1
g217
sI2
g258
sI7
g457
sI9
g533
sI14
g718
sI15
g754
sI20
g933
sI22
g1000
sI29
g1231
sI32
g1326
sI33
g1356
sI36
g1445
sI43
g1646
sI45
g1701
sI46
g1728
sI48
g1782
sI55
g1960
sI58
g2031
sI59
g2054
sI62
g2124
sI69
g2270
sI71
g2309
sI76
g2405
sI77
g2422
sI82
g2504
sI84
g2535
sI89
g2612
sI90
g2625
sI93
g2666
sI99
g2740
sI101
g2762
sI104
g2792
sI105
g2801
sI107
g2820
sI108
g2828
sI110
(dp2836
sI111
(dp2837
sI113
(dp2838
sI114
(dp2839
sI117
(dp2840
sI119
(dp2841
sI125
(dp2842
ssI110
(dp2843
I2
g259
sI3
g299
sI8
g496
sI10
g571
sI15
g755
sI16
g791
sI21
g967
sI23
g1034
sI30
g1263
sI33
g1357
sI34
g1386
sI37
g1475
sI44
g1674
sI46
g1729
sI47
g1756
sI49
g1809
sI56
g1984
sI59
g2055
sI60
g2078
sI63
g2147
sI70
g2290
sI72
g2329
sI77
g2423
sI78
g2439
sI83
g2520
sI85
g2551
sI90
g2626
sI91
g2639
sI94
g2680
sI100
g2752
sI102
g2773
sI105
g2802
sI106
g2811
sI108
g2829
sI109
g2836
sI111
(dp2844
sI112
(dp2845
sI114
(dp2846
sI115
(dp2847
sI118
(dp2848
sI120
(dp2849
sI126
(dp2850
ssI111
(dp2851
I0
g175
sI3
g300
sI4
g340
sI9
g534
sI11
g608
sI16
g792
sI17
g827
sI22
g1001
sI24
g1068
sI31
g1295
sI34
g1387
sI35
g1416
sI38
g1505
sI45
g1702
sI47
g1757
sI48
g1783
sI50
g1836
sI57
g2008
sI60
g2079
sI61
g2102
sI64
g2169
sI71
g2310
sI73
g2349
sI78
g2440
sI79
g2456
sI84
g2536
sI86
g2567
sI91
g2640
sI92
g2653
sI95
g2693
sI101
g2763
sI103
g2783
sI106
g2812
sI107
g2821
sI109
g2837
sI110
g2844
sI112
(dp2852
sI113
(dp2853
sI115
(dp2854
sI116
(dp2855
sI119
(dp2856
sI121
(dp2857
ssI112
(dp2858
I1
g218
sI4
g341
sI5
g380
sI10
g572
sI12
g645
sI17
g828
sI18
g863
sI23
g1035
sI25
g1102
sI32
g1327
sI35
g1417
sI36
g1446
sI39
g1534
sI46
g1730
sI48
g1784
sI49
g1810
sI51
g1862
sI58
g2032
sI61
g2103
sI62
g2125
sI65
g2190
sI72
g2330
sI74
g2368
sI79
g2457
sI80
g2473
sI85
g2552
sI87
g2583
sI92
g2654
sI93
g2667
sI96
g2705
sI102
g2774
sI104
g2793
sI107
g2822
sI108
g2830
sI110
g2845
sI111
g2852
sI113
(dp2859
sI114
(dp2860
sI116
(dp2861
sI117
(dp2862
sI120
(dp2863
sI122
(dp2864
ssI113
(dp2865
I2
g260
sI5
g381
sI6
g419
sI11
g609
sI13
g682
sI18
g864
sI19
g899
sI24
g1069
sI26
g1135
sI33
g1358
sI36
g1447
sI37
g1476
sI40
g1563
sI47
g1758
sI49
g1811
sI50
g1837
sI52
g1887
sI59
g2056
sI62
g2126
sI63
g2148
sI66
g2211
sI73
g2350
sI75
g2387
sI80
g2474
sI81
g2489
sI86
g2568
sI88
g2598
sI93
g2668
sI94
g2681
sI97
g2717
sI103
g2784
sI105
g2803
sI108
g2831
sI109
g2838
sI111
g2853
sI112
g2859
sI114
(dp2866
sI115
(dp2867
sI117
(dp2868
sI118
(dp2869
sI121
(dp2870
sI123
(dp2871
ssI114
(dp2872
I3
g301
sI6
g420
sI7
g458
sI12
g646
sI14
g719
sI19
g900
sI20
g934
sI25
g1103
sI27
g1168
sI34
g1388
sI37
g1477
sI38
g1506
sI41
g1591
sI48
g1785
sI50
g1838
sI51
g1863
sI53
g1912
sI60
g2080
sI63
g2149
sI64
g2170
sI67
g2231
sI74
g2369
sI76
g2406
sI81
g2490
sI82
g2505
sI87
g2584
sI89
g2613
sI94
g2682
sI95
g2694
sI98
g2729
sI104
g2794
sI106
g2813
sI109
g2839
sI110
g2846
sI112
g2860
sI113
g2866
sI115
(dp2873
sI116
(dp2874
sI118
(dp2875
sI119
(dp2876
sI122
(dp2877
sI124
(dp2878
ssI115
(dp2879
I4
g342
sI7
g459
sI8
g497
sI13
g683
sI15
g756
sI20
g935
sI21
g968
sI26
g1136
sI28
g1200
sI35
g1418
sI38
g1507
sI39
g1535
sI42
g1619
sI49
g1812
sI51
g1864
sI52
g1888
sI54
g1937
sI61
g2104
sI64
g2171
sI65
g2191
sI68
g2251
sI75
g2388
sI77
g2424
sI82
g2506
sI83
g2521
sI88
g2599
sI90
g2627
sI95
g2695
sI96
g2706
sI99
g2741
sI105
g2804
sI107
g2823
sI110
g2847
sI111
g2854
sI113
g2867
sI114
g2873
sI116
(dp2880
sI117
(dp2881
sI119
(dp2882
sI120
(dp2883
sI123
(dp2884
sI125
(dp2885
ssI116
(dp2886
I5
g382
sI8
g498
sI9
g535
sI14
g720
sI16
g793
sI21
g969
sI22
g1002
sI27
g1169
sI29
g1232
sI36
g1448
sI39
g1536
sI40
g1564
sI43
g1647
sI50
g1839
sI52
g1889
sI53
g1913
sI55
g1961
sI62
g2127
sI65
g2192
sI66
g2212
sI69
g2271
sI76
g2407
sI78
g2441
sI83
g2522
sI84
g2537
sI89
g2614
sI91
g2641
sI96
g2707
sI97
g2718
sI100
g2753
sI106
g2814
sI108
g2832
sI111
g2855
sI112
g2861
sI114
g2874
sI115
g2880
sI117
(dp2887
sI118
(dp2888
sI120
(dp2889
sI121
(dp2890
sI124
(dp2891
sI126
(dp2892
ssI117
(dp2893
I0
g176
sI6
g421
sI9
g536
sI10
g573
sI15
g757
sI17
g829
sI22
g1003
sI23
g1036
sI28
g1201
sI30
g1264
sI37
g1478
sI40
g1565
sI41
g1592
sI44
g1675
sI51
g1865
sI53
g1914
sI54
g1938
sI56
g1985
sI63
g2150
sI66
g2213
sI67
g2232
sI70
g2291
sI77
g2425
sI79
g2458
sI84
g2538
sI85
g2553
sI90
g2628
sI92
g2655
sI97
g2719
sI98
g2730
sI101
g2764
sI107
g2824
sI109
g2840
sI112
g2862
sI113
g2868
sI115
g2881
sI116
g2887
sI118
(dp2894
sI119
(dp2895
sI121
(dp2896
sI122
(dp2897
sI125
(dp2898
ssI118
(dp2899
I1
g219
sI7
g460
sI10
g574
sI11
g610
sI16
g794
sI18
g865
sI23
g1037
sI24
g1070
sI29
g1233
sI31
g1296
sI38
g1508
sI41
g1593
sI42
g1620
sI45
g1703
sI52
g1890
sI54
g1939
sI55
g1962
sI57
g2009
sI64
g2172
sI67
g2233
sI68
g2252
sI71
g2311
sI78
g2442
sI80
g2475
sI85
g2554
sI86
g2569
sI91
g2642
sI93
g2669
sI98
g2731
sI99
g2742
sI102
g2775
sI108
g2833
sI110
g2848
sI113
g2869
sI114
g2875
sI116
g2888
sI117
g2894
sI119
(dp2900
sI120
(dp2901
sI122
(dp2902
sI123
(dp2903
sI126
(dp2904
ssI119
(dp2905
I0
g177
sI2
g261
sI8
g499
sI11
g611
sI12
g647
sI17
g830
sI19
g901
sI24
g1071
sI25
g1104
sI30
g1265
sI32
g1328
sI39
g1537
sI42
g1621
sI43
g1648
sI46
g1731
sI53
g1915
sI55
g1963
sI56
g1986
sI58
g2033
sI65
g2193
sI68
g2253
sI69
g2272
sI72
g2331
sI79
g2459
sI81
g2491
sI86
g2570
sI87
g2585
sI92
g2656
sI94
g2683
sI99
g2743
sI100
g2754
sI103
g2785
sI109
g2841
sI111
g2856
sI114
g2876
sI115
g2882
sI117
g2895
sI118
g2900
sI120
(dp2906
sI121
(dp2907
sI123
(dp2908
sI124
(dp2909
ssI120
(dp2910
I1
g220
sI3
g302
sI9
g537
sI12
g648
sI13
g684
sI18
g866
sI20
g936
sI25
g1105
sI26
g1137
sI31
g1297
sI33
g1359
sI40
g1566
sI43
g1649
sI44
g1676
sI47
g1759
sI54
g1940
sI56
g1987
sI57
g2010
sI59
g2057
sI66
g2214
sI69
g2273
sI70
g2292
sI73
g2351
sI80
g2476
sI82
g2507
sI87
g2586
sI88
g2600
sI93
g2670
sI95
g2696
sI100
g2755
sI101
g2765
sI104
g2795
sI110
g2849
sI112
g2863
sI115
g2883
sI116
g2889
sI118
g2901
sI119
g2906
sI121
(dp2911
sI122
(dp2912
sI124
(dp2913
sI125
(dp2914
ssI121
(dp2915
I2
g262
sI4
g343
sI10
g575
sI13
g685
sI14
g721
sI19
g902
sI21
g970
sI26
g1138
sI27
g1170
sI32
g1329
sI34
g1389
sI41
g1594
sI44
g1677
sI45
g1704
sI48
g1786
sI55
g1964
sI57
g2011
sI58
g2034
sI60
g2081
sI67
g2234
sI70
g2293
sI71
g2312
sI74
g2370
sI81
g2492
sI83
g2523
sI88
g2601
sI89
g2615
sI94
g2684
sI96
g2708
sI101
g2766
sI102
g2776
sI105
g2805
sI111
g2857
sI113
g2870
sI116
g2890
sI117
g2896
sI119
g2907
sI120
g2911
sI122
(dp2916
sI123
(dp2917
sI125
(dp2918
sI126
(dp2919
ssI122
(dp2920
I0
g178
sI3
g303
sI5
g383
sI11
g612
sI14
g722
sI15
g758
sI20
g937
sI22
g1004
sI27
g1171
sI28
g1202
sI33
g1360
sI35
g1419
sI42
g1622
sI45
g1705
sI46
g1732
sI49
g1813
sI56
g1988
sI58
g2035
sI59
g2058
sI61
g2105
sI68
g2254
sI71
g2313
sI72
g2332
sI75
g2389
sI82
g2508
sI84
g2539
sI89
g2616
sI90
g2629
sI95
g2697
sI97
g2720
sI102
g2777
sI103
g2786
sI106
g2815
sI112
g2864
sI114
g2877
sI117
g2897
sI118
g2902
sI120
g2912
sI121
g2916
sI123
(dp2921
sI124
(dp2922
sI126
(dp2923
ssI123
(dp2924
I0
g179
sI1
g221
sI4
g344
sI6
g422
sI12
g649
sI15
g759
sI16
g795
sI21
g971
sI23
g1038
sI28
g1203
sI29
g1234
sI34
g1390
sI36
g1449
sI43
g1650
sI46
g1733
sI47
g1760
sI50
g1840
sI57
g2012
sI59
g2059
sI60
g2082
sI62
g2128
sI69
g2274
sI72
g2333
sI73
g2352
sI76
g2408
sI83
g2524
sI85
g2555
sI90
g2630
sI91
g2643
sI96
g2709
sI98
g2732
sI103
g2787
sI104
g2796
sI107
g2825
sI113
g2871
sI115
g2884
sI118
g2903
sI119
g2908
sI121
g2917
sI122
g2921
sI124
(dp2925
sI125
(dp2926
ssI124
(dp2927
I1
g222
sI2
g263
sI5
g384
sI7
g461
sI13
g686
sI16
g796
sI17
g831
sI22
g1005
sI24
g1072
sI29
g1235
sI30
g1266
sI35
g1420
sI37
g1479
sI44
g1678
sI47
g1761
sI48
g1787
sI51
g1866
sI58
g2036
sI60
g2083
sI61
g2106
sI63
g2151
sI70
g2294
sI73
g2353
sI74
g2371
sI77
g2426
sI84
g2540
sI86
g2571
sI91
g2644
sI92
g2657
sI97
g2721
sI99
g2744
sI104
g2797
sI105
g2806
sI108
g2834
sI114
g2878
sI116
g2891
sI119
g2909
sI120
g2913
sI122
g2922
sI123
g2925
sI125
(dp2928
sI126
(dp2929
ssI125
(dp2930
I0
g180
sI2
g264
sI3
g304
sI6
g423
sI8
g500
sI14
g723
sI17
g832
sI18
g867
sI23
g1039
sI25
g1106
sI30
g1267
sI31
g1298
sI36
g1450
sI38
g1509
sI45
g1706
sI48
g1788
sI49
g1814
sI52
g1891
sI59
g2060
sI61
g2107
sI62
g2129
sI64
g2173
sI71
g2314
sI74
g2372
sI75
g2390
sI78
g2443
sI85
g2556
sI87
g2587
sI92
g2658
sI93
g2671
sI98
g2733
sI100
g2756
sI105
g2807
sI106
g2816
sI109
g2842
sI115
g2885
sI117
g2898
sI120
g2914
sI121
g2918
sI123
g2926
sI124
g2928
sI126
(dp2931
ssI126
(dp2932
I0
g181
sI1
g223
sI3
g305
sI4
g345
sI7
g462
sI9
g538
sI15
g760
sI18
g868
sI19
g903
sI24
g1073
sI26
g1139
sI31
g1299
sI32
g1330
sI37
g1480
sI39
g1538
sI46
g1734
sI49
g1815
sI50
g1841
sI53
g1916
sI60
g2084
sI62
g2130
sI63
g2152
sI65
g2194
sI72
g2334
sI75
g2391
sI76
g2409
sI79
g2460
sI86
g2572
sI88
g2602
sI93
g2672
sI94
g2685
sI99
g2745
sI101
g2767
sI106
g2817
sI107
g2826
sI110
g2850
sI116
g2892
sI118
g2904
sI121
g2919
sI122
g2923
sI124
g2929
sI125
g2931
sssS'adj'
p2933
g138
sb.