ccopy_reg
_reconstructor
p0
(cnetworkx.classes.graph
Graph
p1
c__builtin__
object
p2
Ntp3
Rp4
(dp5
S'node'
p6
(dp7
I1
(dp8
sI7
(dp9
sI8
(dp10
sI9
(dp11
sI10
(dp12
sI12
(dp13
sI13
(dp14
sI14
(dp15
sI15
(dp16
sI16
(dp17
sI19
(dp18
sI20
(dp19
sI21
(dp20
sI22
(dp21
sI23
(dp22
sI25
(dp23
sI26
(dp24
sI27
(dp25
sI35
(dp26
sI36
(dp27
sI37
(dp28
sI38
(dp29
sI39
(dp30
sI40
(dp31
sI42
(dp32
sI43
(dp33
sI44
(dp34
sI45
(dp35
sI47
(dp36
sI49
(dp37
sI50
(dp38
sI51
(dp39
sI52
(dp40
sI55
(dp41
sI58
(dp42
sI60
(dp43
sI61
(dp44
sI62
(dp45
sI65
(dp46
sI66
(dp47
sI68
(dp48
sI70
(dp49
sI71
(dp50
sI72
(dp51
sI73
(dp52
sI74
(dp53
sI75
(dp54
sI77
(dp55
sI78
(dp56
sI79
(dp57
sI80
(dp58
sI81
(dp59
sI82
(dp60
sI84
(dp61
sI86
(dp62
sI87
(dp63
sI88
(dp64
sI89
(dp65
sI90
(dp66
sI94
(dp67
sI95
(dp68
sI98
(dp69
sI99
(dp70
sI100
(dp71
sI102
(dp72
sI103
(dp73
sI104
(dp74
sI105
(dp75
sI106
(dp76
sI109
(dp77
sI112
(dp78
sI113
(dp79
sI114
(dp80
sI115
(dp81
sI117
(dp82
sI118
(dp83
sI122
(dp84
sI123
(dp85
sI124
(dp86
sI125
(dp87
sI126
(dp88
ssS'graph'
p89
(dp90
sS'edge'
p91
(dp92
I1
(dp93
I9
(dp94
sI20
(dp95
sI21
(dp96
sI26
(dp97
sI39
(dp98
sI51
(dp99
sI52
(dp100
sI55
(dp101
sI62
(dp102
sI65
(dp103
sI74
(dp104
sI77
(dp105
sI78
(dp106
sI81
(dp107
sI88
(dp108
sI90
(dp109
sI95
(dp110
sI103
(dp111
sI109
(dp112
sI112
(dp113
sI118
(dp114
sI123
(dp115
sI124
(dp116
sI126
(dp117
ssI7
(dp118
I8
(dp119
sI9
(dp120
sI12
(dp121
sI15
(dp122
sI23
(dp123
sI26
(dp124
sI27
(dp125
sI39
(dp126
sI40
(dp127
sI45
(dp128
sI47
(dp129
sI58
(dp130
sI61
(dp131
sI68
(dp132
sI70
(dp133
sI71
(dp134
sI73
(dp135
sI80
(dp136
sI84
(dp137
sI87
(dp138
sI94
(dp139
sI102
(dp140
sI109
(dp141
sI114
(dp142
sI115
(dp143
sI118
(dp144
sI124
(dp145
sI126
(dp146
ssI8
(dp147
I7
g119
sI9
(dp148
sI10
(dp149
sI12
(dp150
sI13
(dp151
sI16
(dp152
sI27
(dp153
sI35
(dp154
sI40
(dp155
sI55
(dp156
sI58
(dp157
sI62
(dp158
sI71
(dp159
sI72
(dp160
sI74
(dp161
sI81
(dp162
sI84
(dp163
sI88
(dp164
sI95
(dp165
sI102
(dp166
sI103
(dp167
sI115
(dp168
sI125
(dp169
ssI9
(dp170
I1
g94
sI7
g120
sI8
g148
sI10
(dp171
sI13
(dp172
sI14
(dp173
sI19
(dp174
sI25
(dp175
sI36
(dp176
sI42
(dp177
sI47
(dp178
sI49
(dp179
sI60
(dp180
sI70
(dp181
sI72
(dp182
sI73
(dp183
sI75
(dp184
sI82
(dp185
sI86
(dp186
sI89
(dp187
sI98
(dp188
sI103
(dp189
sI104
(dp190
sI109
(dp191
sI117
(dp192
sI126
(dp193
ssI10
(dp194
I8
g149
sI9
g171
sI12
(dp195
sI14
(dp196
sI15
(dp197
sI20
(dp198
sI26
(dp199
sI35
(dp200
sI37
(dp201
sI42
(dp202
sI43
(dp203
sI50
(dp204
sI60
(dp205
sI61
(dp206
sI71
(dp207
sI73
(dp208
sI74
(dp209
sI86
(dp210
sI87
(dp211
sI90
(dp212
sI99
(dp213
sI104
(dp214
sI105
(dp215
sI112
(dp216
sI117
(dp217
sI118
(dp218
ssI12
(dp219
I7
g121
sI8
g150
sI10
g195
sI13
(dp220
sI14
(dp221
sI16
(dp222
sI20
(dp223
sI22
(dp224
sI37
(dp225
sI39
(dp226
sI44
(dp227
sI45
(dp228
sI50
(dp229
sI52
(dp230
sI62
(dp231
sI66
(dp232
sI73
(dp233
sI75
(dp234
sI78
(dp235
sI88
(dp236
sI89
(dp237
sI99
(dp238
sI106
(dp239
sI112
(dp240
sI114
(dp241
sI123
(dp242
ssI13
(dp243
I8
g151
sI9
g172
sI12
g220
sI14
(dp244
sI15
(dp245
sI21
(dp246
sI23
(dp247
sI38
(dp248
sI40
(dp249
sI45
(dp250
sI51
(dp251
sI60
(dp252
sI74
(dp253
sI77
(dp254
sI79
(dp255
sI86
(dp256
sI89
(dp257
sI90
(dp258
sI100
(dp259
sI102
(dp260
sI113
(dp261
sI115
(dp262
sI124
(dp263
ssI14
(dp264
I9
g173
sI10
g196
sI12
g221
sI13
g244
sI15
(dp265
sI16
(dp266
sI19
(dp267
sI22
(dp268
sI39
(dp269
sI47
(dp270
sI52
(dp271
sI61
(dp272
sI65
(dp273
sI68
(dp274
sI75
(dp275
sI77
(dp276
sI78
(dp277
sI80
(dp278
sI87
(dp279
sI90
(dp280
sI94
(dp281
sI103
(dp282
sI109
(dp283
sI114
(dp284
sI122
(dp285
sI125
(dp286
ssI15
(dp287
I7
g122
sI10
g197
sI13
g245
sI14
g265
sI16
(dp288
sI19
(dp289
sI20
(dp290
sI23
(dp291
sI25
(dp292
sI35
(dp293
sI40
(dp294
sI42
(dp295
sI47
(dp296
sI55
(dp297
sI62
(dp298
sI65
(dp299
sI66
(dp300
sI78
(dp301
sI79
(dp302
sI81
(dp303
sI88
(dp304
sI95
(dp305
sI102
(dp306
sI104
(dp307
sI109
(dp308
sI115
(dp309
sI117
(dp310
sI122
(dp311
sI123
(dp312
sI126
(dp313
ssI16
(dp314
I8
g152
sI12
g222
sI14
g266
sI15
g288
sI20
(dp315
sI21
(dp316
sI26
(dp317
sI35
(dp318
sI36
(dp319
sI43
(dp320
sI49
(dp321
sI66
(dp322
sI70
(dp323
sI77
(dp324
sI79
(dp325
sI80
(dp326
sI82
(dp327
sI89
(dp328
sI103
(dp329
sI105
(dp330
sI118
(dp331
sI123
(dp332
sI124
(dp333
ssI19
(dp334
I9
g174
sI14
g267
sI15
g289
sI20
(dp335
sI21
(dp336
sI23
(dp337
sI27
(dp338
sI35
(dp339
sI38
(dp340
sI39
(dp341
sI44
(dp342
sI51
(dp343
sI52
(dp344
sI66
(dp345
sI70
(dp346
sI73
(dp347
sI80
(dp348
sI82
(dp349
sI95
(dp350
sI99
(dp351
sI106
(dp352
sI113
(dp353
sI114
(dp354
sI126
(dp355
ssI20
(dp356
I1
g95
sI10
g198
sI12
g223
sI15
g290
sI16
g315
sI19
g335
sI21
(dp357
sI22
(dp358
sI25
(dp359
sI36
(dp360
sI39
(dp361
sI40
(dp362
sI45
(dp363
sI47
(dp364
sI52
(dp365
sI58
(dp366
sI60
(dp367
sI70
(dp368
sI71
(dp369
sI74
(dp370
sI81
(dp371
sI84
(dp372
sI86
(dp373
sI100
(dp374
sI109
(dp375
sI114
(dp376
sI115
(dp377
sI122
(dp378
ssI21
(dp379
I1
g96
sI13
g246
sI16
g316
sI19
g336
sI20
g357
sI22
(dp380
sI23
(dp381
sI25
(dp382
sI26
(dp383
sI37
(dp384
sI40
(dp385
sI61
(dp386
sI68
(dp387
sI71
(dp388
sI72
(dp389
sI75
(dp390
sI82
(dp391
sI84
(dp392
sI87
(dp393
sI94
(dp394
sI98
(dp395
sI115
(dp396
sI123
(dp397
ssI22
(dp398
I12
g224
sI14
g268
sI20
g358
sI21
g380
sI23
(dp399
sI26
(dp400
sI27
(dp401
sI38
(dp402
sI42
(dp403
sI47
(dp404
sI49
(dp405
sI55
(dp406
sI60
(dp407
sI62
(dp408
sI72
(dp409
sI73
(dp410
sI86
(dp411
sI88
(dp412
sI95
(dp413
sI98
(dp414
sI99
(dp415
sI102
(dp416
sI109
(dp417
sI117
(dp418
sI122
(dp419
sI124
(dp420
ssI23
(dp421
I7
g123
sI13
g247
sI15
g291
sI19
g337
sI21
g381
sI22
g399
sI25
(dp422
sI27
(dp423
sI39
(dp424
sI42
(dp425
sI43
(dp426
sI50
(dp427
sI55
(dp428
sI61
(dp429
sI70
(dp430
sI73
(dp431
sI74
(dp432
sI77
(dp433
sI84
(dp434
sI86
(dp435
sI87
(dp436
sI89
(dp437
sI99
(dp438
sI100
(dp439
sI103
(dp440
sI112
(dp441
sI117
(dp442
sI118
(dp443
sI123
(dp444
sI125
(dp445
ssI25
(dp446
I9
g175
sI15
g292
sI20
g359
sI21
g382
sI23
g422
sI26
(dp447
sI27
(dp448
sI35
(dp449
sI44
(dp450
sI45
(dp451
sI50
(dp452
sI52
(dp453
sI58
(dp454
sI65
(dp455
sI72
(dp456
sI75
(dp457
sI79
(dp458
sI86
(dp459
sI88
(dp460
sI89
(dp461
sI98
(dp462
sI102
(dp463
sI105
(dp464
sI112
(dp465
sI114
(dp466
sI125
(dp467
ssI26
(dp468
I1
g97
sI7
g124
sI10
g199
sI16
g317
sI21
g383
sI22
g400
sI25
g447
sI27
(dp469
sI36
(dp470
sI42
(dp471
sI45
(dp472
sI51
(dp473
sI58
(dp474
sI66
(dp475
sI73
(dp476
sI77
(dp477
sI80
(dp478
sI87
(dp479
sI89
(dp480
sI90
(dp481
sI99
(dp482
sI102
(dp483
sI103
(dp484
sI106
(dp485
sI113
(dp486
sI115
(dp487
sI126
(dp488
ssI27
(dp489
I7
g125
sI8
g153
sI19
g338
sI22
g401
sI23
g423
sI25
g448
sI26
g469
sI35
(dp490
sI37
(dp491
sI43
(dp492
sI47
(dp493
sI52
(dp494
sI60
(dp495
sI65
(dp496
sI74
(dp497
sI77
(dp498
sI78
(dp499
sI81
(dp500
sI88
(dp501
sI90
(dp502
sI100
(dp503
sI103
(dp504
sI104
(dp505
sI114
(dp506
sI122
(dp507
ssI35
(dp508
I8
g154
sI10
g200
sI15
g293
sI16
g318
sI19
g339
sI25
g449
sI27
g490
sI36
(dp509
sI37
(dp510
sI39
(dp511
sI40
(dp512
sI43
(dp513
sI45
(dp514
sI51
(dp515
sI55
(dp516
sI60
(dp517
sI62
(dp518
sI68
(dp519
sI73
(dp520
sI75
(dp521
sI82
(dp522
sI86
(dp523
sI89
(dp524
sI98
(dp525
sI99
(dp526
sI112
(dp527
sI115
(dp528
sI122
(dp529
sI124
(dp530
ssI36
(dp531
I9
g176
sI16
g319
sI20
g360
sI26
g470
sI35
g509
sI37
(dp532
sI38
(dp533
sI40
(dp534
sI44
(dp535
sI52
(dp536
sI55
(dp537
sI61
(dp538
sI68
(dp539
sI74
(dp540
sI86
(dp541
sI87
(dp542
sI90
(dp543
sI99
(dp544
sI100
(dp545
sI102
(dp546
sI109
(dp547
sI112
(dp548
sI113
(dp549
sI123
(dp550
sI125
(dp551
ssI37
(dp552
I10
g201
sI12
g225
sI21
g384
sI27
g491
sI35
g510
sI36
g532
sI38
(dp553
sI39
(dp554
sI42
(dp555
sI45
(dp556
sI47
(dp557
sI62
(dp558
sI70
(dp559
sI75
(dp560
sI77
(dp561
sI84
(dp562
sI87
(dp563
sI88
(dp564
sI98
(dp565
sI100
(dp566
sI103
(dp567
sI113
(dp568
sI114
(dp569
sI117
(dp570
sI124
(dp571
sI126
(dp572
ssI38
(dp573
I13
g248
sI19
g340
sI22
g402
sI36
g533
sI37
g553
sI39
(dp574
sI40
(dp575
sI42
(dp576
sI43
(dp577
sI58
(dp578
sI65
(dp579
sI70
(dp580
sI71
(dp581
sI78
(dp582
sI88
(dp583
sI89
(dp584
sI99
(dp585
sI102
(dp586
sI104
(dp587
sI114
(dp588
sI115
(dp589
sI118
(dp590
sI125
(dp591
ssI39
(dp592
I1
g98
sI7
g126
sI12
g226
sI14
g269
sI19
g341
sI20
g361
sI23
g424
sI35
g511
sI37
g554
sI38
g574
sI40
(dp593
sI43
(dp594
sI44
(dp595
sI47
(dp596
sI49
(dp597
sI55
(dp598
sI58
(dp599
sI66
(dp600
sI71
(dp601
sI72
(dp602
sI77
(dp603
sI79
(dp604
sI86
(dp605
sI89
(dp606
sI90
(dp607
sI100
(dp608
sI102
(dp609
sI103
(dp610
sI105
(dp611
sI112
(dp612
sI115
(dp613
sI126
(dp614
ssI40
(dp615
I7
g127
sI8
g155
sI13
g249
sI15
g294
sI20
g362
sI21
g385
sI35
g512
sI36
g534
sI38
g575
sI39
g593
sI42
(dp616
sI44
(dp617
sI45
(dp618
sI50
(dp619
sI60
(dp620
sI65
(dp621
sI72
(dp622
sI73
(dp623
sI78
(dp624
sI80
(dp625
sI87
(dp626
sI90
(dp627
sI94
(dp628
sI103
(dp629
sI104
(dp630
sI106
(dp631
sI113
(dp632
sI117
(dp633
ssI42
(dp634
I9
g177
sI10
g202
sI15
g295
sI22
g403
sI23
g425
sI26
g471
sI37
g555
sI38
g576
sI40
g616
sI43
(dp635
sI44
(dp636
sI47
(dp637
sI50
(dp638
sI52
(dp639
sI58
(dp640
sI61
(dp641
sI62
(dp642
sI74
(dp643
sI75
(dp644
sI80
(dp645
sI82
(dp646
sI89
(dp647
sI103
(dp648
sI105
(dp649
sI106
(dp650
sI115
(dp651
sI118
(dp652
sI122
(dp653
ssI43
(dp654
I10
g203
sI16
g320
sI23
g426
sI27
g492
sI35
g513
sI38
g577
sI39
g594
sI42
g635
sI44
(dp655
sI45
(dp656
sI47
(dp657
sI51
(dp658
sI62
(dp659
sI68
(dp660
sI70
(dp661
sI75
(dp662
sI81
(dp663
sI90
(dp664
sI94
(dp665
sI104
(dp666
sI106
(dp667
sI109
(dp668
sI123
(dp669
ssI44
(dp670
I12
g227
sI19
g342
sI25
g450
sI36
g535
sI39
g595
sI40
g617
sI42
g636
sI43
g655
sI45
(dp671
sI49
(dp672
sI52
(dp673
sI60
(dp674
sI71
(dp675
sI77
(dp676
sI82
(dp677
sI84
(dp678
sI94
(dp679
sI95
(dp680
sI98
(dp681
sI105
(dp682
sI117
(dp683
sI124
(dp684
ssI45
(dp685
I7
g128
sI12
g228
sI13
g250
sI20
g363
sI25
g451
sI26
g472
sI35
g514
sI37
g556
sI40
g618
sI43
g656
sI44
g671
sI47
(dp686
sI49
(dp687
sI50
(dp688
sI55
(dp689
sI61
(dp690
sI65
(dp691
sI70
(dp692
sI72
(dp693
sI77
(dp694
sI78
(dp695
sI95
(dp696
sI99
(dp697
sI106
(dp698
sI109
(dp699
sI118
(dp700
sI122
(dp701
sI125
(dp702
ssI47
(dp703
I7
g129
sI9
g178
sI14
g270
sI15
g296
sI20
g364
sI22
g404
sI27
g493
sI37
g557
sI39
g596
sI42
g637
sI43
g657
sI45
g686
sI49
(dp704
sI51
(dp705
sI52
(dp706
sI55
(dp707
sI66
(dp708
sI72
(dp709
sI74
(dp710
sI79
(dp711
sI80
(dp712
sI87
(dp713
sI94
(dp714
sI98
(dp715
sI113
(dp716
sI123
(dp717
sI124
(dp718
ssI49
(dp719
I9
g179
sI16
g321
sI22
g405
sI39
g597
sI44
g672
sI45
g687
sI47
g704
sI50
(dp720
sI51
(dp721
sI65
(dp722
sI68
(dp723
sI74
(dp724
sI81
(dp725
sI82
(dp726
sI87
(dp727
sI89
(dp728
sI99
(dp729
sI100
(dp730
sI103
(dp731
sI112
(dp732
sI113
(dp733
sI115
(dp734
sI122
(dp735
sI125
(dp736
sI126
(dp737
ssI50
(dp738
I10
g204
sI12
g229
sI23
g427
sI25
g452
sI40
g619
sI42
g638
sI45
g688
sI49
g720
sI51
(dp739
sI52
(dp740
sI55
(dp741
sI58
(dp742
sI60
(dp743
sI66
(dp744
sI70
(dp745
sI75
(dp746
sI77
(dp747
sI82
(dp748
sI88
(dp749
sI90
(dp750
sI100
(dp751
sI104
(dp752
sI113
(dp753
sI114
(dp754
sI123
(dp755
sI126
(dp756
ssI51
(dp757
I1
g99
sI13
g251
sI19
g343
sI26
g473
sI35
g515
sI43
g658
sI47
g705
sI49
g721
sI50
g739
sI52
(dp758
sI55
(dp759
sI61
(dp760
sI70
(dp761
sI71
(dp762
sI78
(dp763
sI84
(dp764
sI89
(dp765
sI98
(dp766
sI102
(dp767
sI105
(dp768
sI112
(dp769
sI114
(dp770
sI115
(dp771
sI117
(dp772
sI124
(dp773
ssI52
(dp774
I1
g100
sI12
g230
sI14
g271
sI19
g344
sI20
g365
sI25
g453
sI27
g494
sI36
g536
sI42
g639
sI44
g673
sI47
g706
sI50
g740
sI51
g758
sI60
(dp775
sI62
(dp776
sI68
(dp777
sI71
(dp778
sI72
(dp779
sI77
(dp780
sI79
(dp781
sI84
(dp782
sI90
(dp783
sI99
(dp784
sI102
(dp785
sI103
(dp786
sI106
(dp787
sI113
(dp788
sI115
(dp789
sI118
(dp790
sI125
(dp791
ssI55
(dp792
I1
g101
sI8
g156
sI15
g297
sI22
g406
sI23
g428
sI35
g516
sI36
g537
sI39
g598
sI45
g689
sI47
g707
sI50
g741
sI51
g759
sI60
(dp793
sI65
(dp794
sI71
(dp795
sI74
(dp796
sI75
(dp797
sI80
(dp798
sI82
(dp799
sI87
(dp800
sI88
(dp801
sI95
(dp802
sI102
(dp803
sI105
(dp804
sI106
(dp805
sI109
(dp806
sI118
(dp807
ssI58
(dp808
I7
g130
sI8
g157
sI20
g366
sI25
g454
sI26
g474
sI38
g578
sI39
g599
sI42
g640
sI50
g742
sI60
(dp809
sI62
(dp810
sI66
(dp811
sI68
(dp812
sI74
(dp813
sI77
(dp814
sI78
(dp815
sI90
(dp816
sI98
(dp817
sI105
(dp818
sI109
(dp819
sI112
(dp820
sI122
(dp821
sI124
(dp822
ssI60
(dp823
I9
g180
sI10
g205
sI13
g252
sI20
g367
sI22
g407
sI27
g495
sI35
g517
sI40
g620
sI44
g674
sI50
g743
sI52
g775
sI55
g793
sI58
g809
sI61
(dp824
sI62
(dp825
sI65
(dp826
sI68
(dp827
sI70
(dp828
sI79
(dp829
sI80
(dp830
sI87
(dp831
sI98
(dp832
sI100
(dp833
sI114
(dp834
sI123
(dp835
sI124
(dp836
sI126
(dp837
ssI61
(dp838
I7
g131
sI10
g206
sI14
g272
sI21
g386
sI23
g429
sI36
g538
sI42
g641
sI45
g690
sI51
g760
sI60
g824
sI62
(dp839
sI65
(dp840
sI66
(dp841
sI71
(dp842
sI77
(dp843
sI80
(dp844
sI81
(dp845
sI86
(dp846
sI88
(dp847
sI94
(dp848
sI99
(dp849
sI112
(dp850
sI115
(dp851
sI122
(dp852
sI124
(dp853
sI125
(dp854
ssI62
(dp855
I1
g102
sI8
g158
sI12
g231
sI15
g298
sI22
g408
sI35
g518
sI37
g558
sI42
g642
sI43
g659
sI52
g776
sI58
g810
sI60
g825
sI61
g839
sI66
(dp856
sI70
(dp857
sI72
(dp858
sI78
(dp859
sI81
(dp860
sI82
(dp861
sI87
(dp862
sI89
(dp863
sI94
(dp864
sI95
(dp865
sI100
(dp866
sI102
(dp867
sI109
(dp868
sI112
(dp869
sI113
(dp870
sI123
(dp871
sI125
(dp872
sI126
(dp873
ssI65
(dp874
I1
g103
sI14
g273
sI15
g299
sI25
g455
sI27
g496
sI38
g579
sI40
g621
sI45
g691
sI49
g722
sI55
g794
sI60
g826
sI61
g840
sI66
(dp875
sI70
(dp876
sI73
(dp877
sI75
(dp878
sI81
(dp879
sI84
(dp880
sI90
(dp881
sI98
(dp882
sI103
(dp883
sI105
(dp884
sI112
(dp885
sI115
(dp886
sI126
(dp887
ssI66
(dp888
I12
g232
sI15
g300
sI16
g322
sI19
g345
sI26
g475
sI39
g600
sI47
g708
sI50
g744
sI58
g811
sI61
g841
sI62
g856
sI65
g875
sI68
(dp889
sI70
(dp890
sI71
(dp891
sI74
(dp892
sI82
(dp893
sI86
(dp894
sI98
(dp895
sI99
(dp896
sI104
(dp897
sI106
(dp898
sI113
(dp899
sI117
(dp900
ssI68
(dp901
I7
g132
sI14
g274
sI21
g387
sI35
g519
sI36
g539
sI43
g660
sI49
g723
sI52
g777
sI58
g812
sI60
g827
sI66
g889
sI70
(dp902
sI72
(dp903
sI73
(dp904
sI78
(dp905
sI84
(dp906
sI87
(dp907
sI88
(dp908
sI95
(dp909
sI100
(dp910
sI106
(dp911
sI115
(dp912
sI118
(dp913
sI122
(dp914
ssI70
(dp915
I7
g133
sI9
g181
sI16
g323
sI19
g346
sI20
g368
sI23
g430
sI37
g559
sI38
g580
sI43
g661
sI45
g692
sI50
g745
sI51
g761
sI60
g828
sI62
g857
sI65
g876
sI66
g890
sI68
g902
sI71
(dp916
sI72
(dp917
sI74
(dp918
sI75
(dp919
sI78
(dp920
sI80
(dp921
sI86
(dp922
sI89
(dp923
sI90
(dp924
sI95
(dp925
sI102
(dp926
sI103
(dp927
sI117
(dp928
sI124
(dp929
ssI71
(dp930
I7
g134
sI8
g159
sI10
g207
sI20
g369
sI21
g388
sI38
g581
sI39
g601
sI44
g675
sI51
g762
sI52
g778
sI55
g795
sI61
g842
sI66
g891
sI70
g916
sI72
(dp931
sI73
(dp932
sI75
(dp933
sI79
(dp934
sI81
(dp935
sI87
(dp936
sI90
(dp937
sI98
(dp938
sI103
(dp939
sI104
(dp940
sI109
(dp941
sI118
(dp942
sI122
(dp943
sI125
(dp944
ssI72
(dp945
I8
g160
sI9
g182
sI21
g389
sI22
g409
sI25
g456
sI39
g602
sI40
g622
sI45
g693
sI47
g709
sI52
g779
sI62
g858
sI68
g903
sI70
g917
sI71
g931
sI73
(dp946
sI74
(dp947
sI77
(dp948
sI80
(dp949
sI82
(dp950
sI88
(dp951
sI99
(dp952
sI104
(dp953
sI105
(dp954
sI112
(dp955
sI122
(dp956
sI123
(dp957
sI126
(dp958
ssI73
(dp959
I7
g135
sI9
g183
sI10
g208
sI12
g233
sI19
g347
sI22
g410
sI23
g431
sI26
g476
sI35
g520
sI40
g623
sI65
g877
sI68
g904
sI71
g932
sI72
g946
sI74
(dp960
sI75
(dp961
sI77
(dp962
sI78
(dp963
sI81
(dp964
sI89
(dp965
sI98
(dp966
sI100
(dp967
sI105
(dp968
sI106
(dp969
sI113
(dp970
sI123
(dp971
sI124
(dp972
ssI74
(dp973
I1
g104
sI8
g161
sI10
g209
sI13
g253
sI20
g370
sI23
g432
sI27
g497
sI36
g540
sI42
g643
sI47
g710
sI49
g724
sI55
g796
sI58
g813
sI66
g892
sI70
g918
sI72
g947
sI73
g960
sI75
(dp974
sI78
(dp975
sI79
(dp976
sI82
(dp977
sI84
(dp978
sI90
(dp979
sI94
(dp980
sI99
(dp981
sI106
(dp982
sI112
(dp983
sI114
(dp984
sI124
(dp985
sI125
(dp986
ssI75
(dp987
I9
g184
sI12
g234
sI14
g275
sI21
g390
sI25
g457
sI35
g521
sI37
g560
sI42
g644
sI43
g662
sI50
g746
sI55
g797
sI65
g878
sI70
g919
sI71
g933
sI73
g961
sI74
g974
sI77
(dp988
sI79
(dp989
sI80
(dp990
sI94
(dp991
sI95
(dp992
sI100
(dp993
sI102
(dp994
sI113
(dp995
sI115
(dp996
sI122
(dp997
sI125
(dp998
sI126
(dp999
ssI77
(dp1000
I1
g105
sI13
g254
sI14
g276
sI16
g324
sI23
g433
sI26
g477
sI27
g498
sI37
g561
sI39
g603
sI44
g676
sI45
g694
sI50
g747
sI52
g780
sI58
g814
sI61
g843
sI72
g948
sI73
g962
sI75
g988
sI78
(dp1001
sI79
(dp1002
sI81
(dp1003
sI82
(dp1004
sI87
(dp1005
sI102
(dp1006
sI104
(dp1007
sI109
(dp1008
sI115
(dp1009
sI117
(dp1010
sI124
(dp1011
ssI78
(dp1012
I1
g106
sI12
g235
sI14
g277
sI15
g301
sI27
g499
sI38
g582
sI40
g624
sI45
g695
sI51
g763
sI58
g815
sI62
g859
sI68
g905
sI70
g920
sI73
g963
sI74
g975
sI77
g1001
sI79
(dp1013
sI80
(dp1014
sI82
(dp1015
sI86
(dp1016
sI88
(dp1017
sI94
(dp1018
sI98
(dp1019
sI103
(dp1020
sI105
(dp1021
sI118
(dp1022
sI125
(dp1023
ssI79
(dp1024
I13
g255
sI15
g302
sI16
g325
sI25
g458
sI39
g604
sI47
g711
sI52
g781
sI60
g829
sI71
g934
sI74
g976
sI75
g989
sI77
g1002
sI78
g1013
sI80
(dp1025
sI81
(dp1026
sI84
(dp1027
sI87
(dp1028
sI89
(dp1029
sI95
(dp1030
sI98
(dp1031
sI99
(dp1032
sI104
(dp1033
sI106
(dp1034
sI112
(dp1035
sI117
(dp1036
sI126
(dp1037
ssI80
(dp1038
I7
g136
sI14
g278
sI16
g326
sI19
g348
sI26
g478
sI40
g625
sI42
g645
sI47
g712
sI55
g798
sI60
g830
sI61
g844
sI70
g921
sI72
g949
sI75
g990
sI78
g1014
sI79
g1025
sI81
(dp1039
sI82
(dp1040
sI84
(dp1041
sI88
(dp1042
sI90
(dp1043
sI99
(dp1044
sI100
(dp1045
sI105
(dp1046
sI112
(dp1047
sI113
(dp1048
sI118
(dp1049
ssI81
(dp1050
I1
g107
sI8
g162
sI15
g303
sI20
g371
sI27
g500
sI43
g663
sI49
g725
sI61
g845
sI62
g860
sI65
g879
sI71
g935
sI73
g964
sI77
g1003
sI79
g1026
sI80
g1039
sI82
(dp1051
sI86
(dp1052
sI89
(dp1053
sI100
(dp1054
sI106
(dp1055
sI113
(dp1056
sI114
(dp1057
ssI82
(dp1058
I9
g185
sI16
g327
sI19
g349
sI21
g391
sI35
g522
sI42
g646
sI44
g677
sI49
g726
sI50
g748
sI55
g799
sI62
g861
sI66
g893
sI72
g950
sI74
g977
sI77
g1004
sI78
g1015
sI80
g1040
sI81
g1051
sI84
(dp1059
sI86
(dp1060
sI87
(dp1061
sI90
(dp1062
sI98
(dp1063
sI102
(dp1064
sI109
(dp1065
sI114
(dp1066
sI115
(dp1067
sI122
(dp1068
ssI84
(dp1069
I7
g137
sI8
g163
sI20
g372
sI21
g392
sI23
g434
sI37
g562
sI44
g678
sI51
g764
sI52
g782
sI65
g880
sI68
g906
sI74
g978
sI79
g1027
sI80
g1041
sI82
g1059
sI86
(dp1070
sI88
(dp1071
sI89
(dp1072
sI94
(dp1073
sI100
(dp1074
sI103
(dp1075
sI104
(dp1076
sI109
(dp1077
sI117
(dp1078
sI122
(dp1079
sI124
(dp1080
ssI86
(dp1081
I9
g186
sI10
g210
sI13
g256
sI20
g373
sI22
g411
sI23
g435
sI25
g459
sI35
g523
sI36
g541
sI39
g605
sI61
g846
sI66
g894
sI70
g922
sI78
g1016
sI81
g1052
sI82
g1060
sI84
g1070
sI87
(dp1082
sI88
(dp1083
sI90
(dp1084
sI94
(dp1085
sI102
(dp1086
sI105
(dp1087
sI106
(dp1088
sI113
(dp1089
sI118
(dp1090
sI124
(dp1091
sI126
(dp1092
ssI87
(dp1093
I7
g138
sI10
g211
sI14
g279
sI21
g393
sI23
g436
sI26
g479
sI36
g542
sI37
g563
sI40
g626
sI47
g713
sI49
g727
sI55
g800
sI60
g831
sI62
g862
sI68
g907
sI71
g936
sI77
g1005
sI79
g1028
sI82
g1061
sI86
g1082
sI88
(dp1094
sI89
(dp1095
sI95
(dp1096
sI103
(dp1097
sI106
(dp1098
sI112
(dp1099
sI114
(dp1100
sI125
(dp1101
ssI88
(dp1102
I1
g108
sI8
g164
sI12
g236
sI15
g304
sI22
g412
sI25
g460
sI27
g501
sI37
g564
sI38
g583
sI50
g749
sI55
g801
sI61
g847
sI68
g908
sI72
g951
sI78
g1017
sI80
g1042
sI84
g1071
sI86
g1083
sI87
g1094
sI89
(dp1103
sI90
(dp1104
sI98
(dp1105
sI104
(dp1106
sI113
(dp1107
sI115
(dp1108
sI126
(dp1109
ssI89
(dp1110
I9
g187
sI12
g237
sI13
g257
sI16
g328
sI23
g437
sI25
g461
sI26
g480
sI35
g524
sI38
g584
sI39
g606
sI42
g647
sI49
g728
sI51
g765
sI62
g863
sI70
g923
sI73
g965
sI79
g1029
sI81
g1053
sI84
g1072
sI87
g1095
sI88
g1103
sI90
(dp1111
sI94
(dp1112
sI99
(dp1113
sI105
(dp1114
sI109
(dp1115
sI114
(dp1116
sI122
(dp1117
ssI90
(dp1118
I1
g109
sI10
g212
sI13
g258
sI14
g280
sI26
g481
sI27
g502
sI36
g543
sI39
g607
sI40
g627
sI43
g664
sI50
g750
sI52
g783
sI58
g816
sI65
g881
sI70
g924
sI71
g937
sI74
g979
sI80
g1043
sI82
g1062
sI86
g1084
sI88
g1104
sI89
g1111
sI94
(dp1119
sI95
(dp1120
sI98
(dp1121
sI100
(dp1122
sI106
(dp1123
sI109
(dp1124
sI115
(dp1125
sI117
(dp1126
sI122
(dp1127
sI123
(dp1128
ssI94
(dp1129
I7
g139
sI14
g281
sI21
g394
sI40
g628
sI43
g665
sI44
g679
sI47
g714
sI61
g848
sI62
g864
sI74
g980
sI75
g991
sI78
g1018
sI84
g1073
sI86
g1085
sI89
g1112
sI90
g1119
sI95
(dp1130
sI98
(dp1131
sI99
(dp1132
sI102
(dp1133
sI104
(dp1134
sI113
(dp1135
sI114
(dp1136
sI126
(dp1137
ssI95
(dp1138
I1
g110
sI8
g165
sI15
g305
sI19
g350
sI22
g413
sI44
g680
sI45
g696
sI55
g802
sI62
g865
sI68
g909
sI70
g925
sI75
g992
sI79
g1030
sI87
g1096
sI90
g1120
sI94
g1130
sI99
(dp1139
sI100
(dp1140
sI103
(dp1141
sI105
(dp1142
sI114
(dp1143
sI115
(dp1144
sI122
(dp1145
ssI98
(dp1146
I9
g188
sI21
g395
sI22
g414
sI25
g462
sI35
g525
sI37
g565
sI44
g681
sI47
g715
sI51
g766
sI58
g817
sI60
g832
sI65
g882
sI66
g895
sI71
g938
sI73
g966
sI78
g1019
sI79
g1031
sI82
g1063
sI88
g1105
sI90
g1121
sI94
g1131
sI99
(dp1147
sI100
(dp1148
sI102
(dp1149
sI103
(dp1150
sI106
(dp1151
sI114
(dp1152
sI117
(dp1153
sI118
(dp1154
sI123
(dp1155
sI125
(dp1156
ssI99
(dp1157
I10
g213
sI12
g238
sI19
g351
sI22
g415
sI23
g438
sI26
g482
sI35
g526
sI36
g544
sI38
g585
sI45
g697
sI49
g729
sI52
g784
sI61
g849
sI66
g896
sI72
g952
sI74
g981
sI79
g1032
sI80
g1044
sI89
g1113
sI94
g1132
sI95
g1139
sI98
g1147
sI100
(dp1158
sI103
(dp1159
sI104
(dp1160
sI109
(dp1161
sI115
(dp1162
sI118
(dp1163
sI124
(dp1164
sI126
(dp1165
ssI100
(dp1166
I13
g259
sI20
g374
sI23
g439
sI27
g503
sI36
g545
sI37
g566
sI39
g608
sI49
g730
sI50
g751
sI60
g833
sI62
g866
sI68
g910
sI73
g967
sI75
g993
sI80
g1045
sI81
g1054
sI84
g1074
sI90
g1122
sI95
g1140
sI98
g1148
sI99
g1158
sI102
(dp1167
sI104
(dp1168
sI105
(dp1169
sI125
(dp1170
ssI102
(dp1171
I7
g140
sI8
g166
sI13
g260
sI15
g306
sI22
g416
sI25
g463
sI26
g483
sI36
g546
sI38
g586
sI39
g609
sI51
g767
sI52
g785
sI55
g803
sI62
g867
sI70
g926
sI75
g994
sI77
g1006
sI82
g1064
sI86
g1086
sI94
g1133
sI98
g1149
sI100
g1167
sI103
(dp1172
sI104
(dp1173
sI106
(dp1174
sI112
(dp1175
sI118
(dp1176
sI122
(dp1177
ssI103
(dp1178
I1
g111
sI8
g167
sI9
g189
sI14
g282
sI16
g329
sI23
g440
sI26
g484
sI27
g504
sI37
g567
sI39
g610
sI40
g629
sI42
g648
sI49
g731
sI52
g786
sI65
g883
sI70
g927
sI71
g939
sI78
g1020
sI84
g1075
sI87
g1097
sI95
g1141
sI98
g1150
sI99
g1159
sI102
g1172
sI104
(dp1179
sI105
(dp1180
sI113
(dp1181
sI122
(dp1182
sI123
(dp1183
ssI104
(dp1184
I9
g190
sI10
g214
sI15
g307
sI27
g505
sI38
g587
sI40
g630
sI43
g666
sI50
g752
sI66
g897
sI71
g940
sI72
g953
sI77
g1007
sI79
g1033
sI84
g1076
sI88
g1106
sI94
g1134
sI99
g1160
sI100
g1168
sI102
g1173
sI103
g1179
sI105
(dp1185
sI106
(dp1186
sI109
(dp1187
sI112
(dp1188
sI114
(dp1189
sI123
(dp1190
sI124
(dp1191
ssI105
(dp1192
I10
g215
sI16
g330
sI25
g464
sI39
g611
sI42
g649
sI44
g682
sI51
g768
sI55
g804
sI58
g818
sI65
g884
sI72
g954
sI73
g968
sI78
g1021
sI80
g1046
sI86
g1087
sI89
g1114
sI95
g1142
sI100
g1169
sI103
g1180
sI104
g1185
sI106
(dp1193
sI109
(dp1194
sI113
(dp1195
sI115
(dp1196
sI124
(dp1197
sI125
(dp1198
ssI106
(dp1199
I12
g239
sI19
g352
sI26
g485
sI40
g631
sI42
g650
sI43
g667
sI45
g698
sI52
g787
sI55
g805
sI66
g898
sI68
g911
sI73
g969
sI74
g982
sI79
g1034
sI81
g1055
sI86
g1088
sI87
g1098
sI90
g1123
sI98
g1151
sI102
g1174
sI104
g1186
sI105
g1193
sI114
(dp1200
sI122
(dp1201
sI125
(dp1202
sI126
(dp1203
ssI109
(dp1204
I1
g112
sI7
g141
sI9
g191
sI14
g283
sI15
g308
sI20
g375
sI22
g417
sI36
g547
sI43
g668
sI45
g699
sI55
g806
sI58
g819
sI62
g868
sI71
g941
sI77
g1008
sI82
g1065
sI84
g1077
sI89
g1115
sI90
g1124
sI99
g1161
sI104
g1187
sI105
g1194
sI113
(dp1205
sI114
(dp1206
sI117
(dp1207
sI125
(dp1208
ssI112
(dp1209
I1
g113
sI10
g216
sI12
g240
sI23
g441
sI25
g465
sI35
g527
sI36
g548
sI39
g612
sI49
g732
sI51
g769
sI58
g820
sI61
g850
sI62
g869
sI65
g885
sI72
g955
sI74
g983
sI79
g1035
sI80
g1047
sI87
g1099
sI102
g1175
sI104
g1188
sI113
(dp1210
sI114
(dp1211
sI117
(dp1212
sI122
(dp1213
ssI113
(dp1214
I13
g261
sI19
g353
sI26
g486
sI36
g549
sI37
g568
sI40
g632
sI47
g716
sI49
g733
sI50
g753
sI52
g788
sI62
g870
sI66
g899
sI73
g970
sI75
g995
sI80
g1048
sI81
g1056
sI86
g1089
sI88
g1107
sI94
g1135
sI103
g1181
sI105
g1195
sI109
g1205
sI112
g1210
sI114
(dp1215
sI115
(dp1216
sI117
(dp1217
sI118
(dp1218
sI123
(dp1219
ssI114
(dp1220
I7
g142
sI12
g241
sI14
g284
sI19
g354
sI20
g376
sI25
g466
sI27
g506
sI37
g569
sI38
g588
sI50
g754
sI51
g770
sI60
g834
sI74
g984
sI81
g1057
sI82
g1066
sI87
g1100
sI89
g1116
sI94
g1136
sI95
g1143
sI98
g1152
sI104
g1189
sI106
g1200
sI109
g1206
sI112
g1211
sI113
g1215
sI115
(dp1221
sI118
(dp1222
sI122
(dp1223
sI124
(dp1224
ssI115
(dp1225
I7
g143
sI8
g168
sI13
g262
sI15
g309
sI20
g377
sI21
g396
sI26
g487
sI35
g528
sI38
g589
sI39
g613
sI42
g651
sI49
g734
sI51
g771
sI52
g789
sI61
g851
sI65
g886
sI68
g912
sI75
g996
sI77
g1009
sI82
g1067
sI88
g1108
sI90
g1125
sI95
g1144
sI99
g1162
sI105
g1196
sI113
g1216
sI114
g1221
sI117
(dp1226
sI123
(dp1227
sI125
(dp1228
ssI117
(dp1229
I9
g192
sI10
g217
sI15
g310
sI22
g418
sI23
g442
sI37
g570
sI40
g633
sI44
g683
sI51
g772
sI66
g900
sI70
g928
sI77
g1010
sI79
g1036
sI84
g1078
sI90
g1126
sI98
g1153
sI109
g1207
sI112
g1212
sI113
g1217
sI115
g1226
sI118
(dp1230
sI122
(dp1231
sI125
(dp1232
ssI118
(dp1233
I1
g114
sI7
g144
sI10
g218
sI16
g331
sI23
g443
sI38
g590
sI42
g652
sI45
g700
sI52
g790
sI55
g807
sI68
g913
sI71
g942
sI78
g1022
sI80
g1049
sI86
g1090
sI98
g1154
sI99
g1163
sI102
g1176
sI113
g1218
sI114
g1222
sI117
g1230
sI122
(dp1234
sI123
(dp1235
sI126
(dp1236
ssI122
(dp1237
I14
g285
sI15
g311
sI20
g378
sI22
g419
sI27
g507
sI35
g529
sI42
g653
sI45
g701
sI49
g735
sI58
g821
sI61
g852
sI68
g914
sI71
g943
sI72
g956
sI75
g997
sI82
g1068
sI84
g1079
sI89
g1117
sI90
g1127
sI95
g1145
sI102
g1177
sI103
g1182
sI106
g1201
sI112
g1213
sI114
g1223
sI117
g1231
sI118
g1234
sI123
(dp1238
sI124
(dp1239
sI126
(dp1240
ssI123
(dp1241
I1
g115
sI12
g242
sI15
g312
sI16
g332
sI21
g397
sI23
g444
sI36
g550
sI43
g669
sI47
g717
sI50
g755
sI60
g835
sI62
g871
sI72
g957
sI73
g971
sI90
g1128
sI98
g1155
sI103
g1183
sI104
g1190
sI113
g1219
sI115
g1227
sI118
g1235
sI122
g1238
sI124
(dp1242
sI125
(dp1243
ssI124
(dp1244
I1
g116
sI7
g145
sI13
g263
sI16
g333
sI22
g420
sI35
g530
sI37
g571
sI44
g684
sI47
g718
sI51
g773
sI58
g822
sI60
g836
sI61
g853
sI70
g929
sI73
g972
sI74
g985
sI77
g1011
sI84
g1080
sI86
g1091
sI99
g1164
sI104
g1191
sI105
g1197
sI114
g1224
sI122
g1239
sI123
g1242
sI125
(dp1245
sI126
(dp1246
ssI125
(dp1247
I8
g169
sI14
g286
sI23
g445
sI25
g467
sI36
g551
sI38
g591
sI45
g702
sI49
g736
sI52
g791
sI61
g854
sI62
g872
sI71
g944
sI74
g986
sI75
g998
sI78
g1023
sI87
g1101
sI98
g1156
sI100
g1170
sI105
g1198
sI106
g1202
sI109
g1208
sI115
g1228
sI117
g1232
sI123
g1243
sI124
g1245
sI126
(dp1248
ssI126
(dp1249
I1
g117
sI7
g146
sI9
g193
sI15
g313
sI19
g355
sI26
g488
sI37
g572
sI39
g614
sI49
g737
sI50
g756
sI60
g837
sI62
g873
sI65
g887
sI72
g958
sI75
g999
sI79
g1037
sI86
g1092
sI88
g1109
sI94
g1137
sI99
g1165
sI106
g1203
sI118
g1236
sI122
g1240
sI124
g1246
sI125
g1248
sssS'adj'
p1250
g92
sb.